ff000: ff ff                 ???     
ff002: ff ff                 ???     
ff004: ff ff                 ???     
ff006: ff ff                 ???     
ff008: ff ff                 ???     
ff00a: ff ff                 ???     
ff00c: ff ff                 ???     
ff00e: ff ff                 ???     
ff010: ff ff                 ???     
ff012: ff ff                 ???     
ff014: ff ff                 ???     
ff016: ff ff                 ???     
ff018: ff ff                 ???     
ff01a: ff ff                 ???     
ff01c: ff ff                 ???     
ff01e: ff ff                 ???     
ff020: ff ff                 ???     
ff022: ff ff                 ???     
ff024: ff ff                 ???     
ff026: ff ff                 ???     
ff028: ff ff                 ???     
ff02a: ff ff                 ???     
ff02c: ff ff                 ???     
ff02e: ff ff                 ???     
ff030: ff ff                 ???     
ff032: ff ff                 ???     
ff034: ff ff                 ???     
ff036: ff ff                 ???     
ff038: ff ff                 ???     
ff03a: ff ff                 ???     
ff03c: ff ff                 ???     
ff03e: ff ff                 ???     
ff040: ff ff                 ???     
ff042: ff ff                 ???     
ff044: ff ff                 ???     
ff046: ff ff                 ???     
ff048: ff ff                 ???     
ff04a: ff ff                 ???     
ff04c: ff ff                 ???     
ff04e: ff ff                 ???     
ff050: ff ff                 ???     
ff052: ff ff                 ???     
ff054: ff ff                 ???     
ff056: ff ff                 ???     
ff058: ff ff                 ???     
ff05a: ff ff                 ???     
ff05c: ff ff                 ???     
ff05e: ff ff                 ???     
ff060: ff ff                 ???     
ff062: ff ff                 ???     
ff064: ff ff                 ???     
ff066: ff ff                 ???     
ff068: ff ff                 ???     
ff06a: ff ff                 ???     
ff06c: ff ff                 ???     
ff06e: ff ff                 ???     
ff070: ff ff                 ???     
ff072: ff ff                 ???     
ff074: ff ff                 ???     
ff076: ff ff                 ???     
ff078: ff ff                 ???     
ff07a: ff ff                 ???     
ff07c: ff ff                 ???     
ff07e: ff ff                 ???     
ff080: ff ff                 ???     
ff082: ff ff                 ???     
ff084: ff ff                 ???     
ff086: ff ff                 ???     
ff088: ff ff                 ???     
ff08a: ff ff                 ???     
ff08c: ff ff                 ???     
ff08e: ff ff                 ???     
ff090: ff ff                 ???     
ff092: ff ff                 ???     
ff094: ff ff                 ???     
ff096: ff ff                 ???     
ff098: ff ff                 ???     
ff09a: ff ff                 ???     
ff09c: ff ff                 ???     
ff09e: ff ff                 ???     
ff0a0: ff ff                 ???     
ff0a2: ff ff                 ???     
ff0a4: ff ff                 ???     
ff0a6: ff ff                 ???     
ff0a8: ff ff                 ???     
ff0aa: ff ff                 ???     
ff0ac: ff ff                 ???     
ff0ae: ff ff                 ???     
ff0b0: ff ff                 ???     
ff0b2: ff ff                 ???     
ff0b4: ff ff                 ???     
ff0b6: ff ff                 ???     
ff0b8: ff ff                 ???     
ff0ba: ff ff                 ???     
ff0bc: ff ff                 ???     
ff0be: ff ff                 ???     
ff0c0: ff ff                 ???     
ff0c2: ff ff                 ???     
ff0c4: ff ff                 ???     
ff0c6: ff ff                 ???     
ff0c8: ff ff                 ???     
ff0ca: ff ff                 ???     
ff0cc: ff ff                 ???     
ff0ce: ff ff                 ???     
ff0d0: ff ff                 ???     
ff0d2: ff ff                 ???     
ff0d4: ff ff                 ???     
ff0d6: ff ff                 ???     
ff0d8: ff ff                 ???     
ff0da: ff ff                 ???     
ff0dc: ff ff                 ???     
ff0de: ff ff                 ???     
ff0e0: ff ff                 ???     
ff0e2: ff ff                 ???     
ff0e4: ff ff                 ???     
ff0e6: ff ff                 ???     
ff0e8: ff ff                 ???     
ff0ea: ff ff                 ???     
ff0ec: ff ff                 ???     
ff0ee: ff ff                 ???     
ff0f0: ff ff                 ???     
ff0f2: ff ff                 ???     
ff0f4: ff ff                 ???     
ff0f6: ff ff                 ???     
ff0f8: ff ff                 ???     
ff0fa: ff ff                 ???     
ff0fc: ff ff                 ???     
ff0fe: ff ff                 ???     
ff100: ff ff                 ???     
ff102: ff ff                 ???     
ff104: ff ff                 ???     
ff106: ff ff                 ???     
ff108: ff ff                 ???     
ff10a: ff ff                 ???     
ff10c: ff ff                 ???     
ff10e: ff ff                 ???     
ff110: ff ff                 ???     
ff112: ff ff                 ???     
ff114: ff ff                 ???     
ff116: ff ff                 ???     
ff118: ff ff                 ???     
ff11a: ff ff                 ???     
ff11c: ff ff                 ???     
ff11e: ff ff                 ???     
ff120: ff ff                 ???     
ff122: ff ff                 ???     
ff124: ff ff                 ???     
ff126: ff ff                 ???     
ff128: ff ff                 ???     
ff12a: ff ff                 ???     
ff12c: ff ff                 ???     
ff12e: ff ff                 ???     
ff130: ff ff                 ???     
ff132: ff ff                 ???     
ff134: ff ff                 ???     
ff136: ff ff                 ???     
ff138: ff ff                 ???     
ff13a: ff ff                 ???     
ff13c: ff ff                 ???     
ff13e: ff ff                 ???     
ff140: ff ff                 ???     
ff142: ff ff                 ???     
ff144: ff ff                 ???     
ff146: ff ff                 ???     
ff148: ff ff                 ???     
ff14a: ff ff                 ???     
ff14c: ff ff                 ???     
ff14e: ff ff                 ???     
ff150: ff ff                 ???     
ff152: ff ff                 ???     
ff154: ff ff                 ???     
ff156: ff ff                 ???     
ff158: ff ff                 ???     
ff15a: ff ff                 ???     
ff15c: ff ff                 ???     
ff15e: ff ff                 ???     
ff160: ff ff                 ???     
ff162: ff ff                 ???     
ff164: ff ff                 ???     
ff166: ff ff                 ???     
ff168: ff ff                 ???     
ff16a: ff ff                 ???     
ff16c: ff ff                 ???     
ff16e: ff ff                 ???     
ff170: ff ff                 ???     
ff172: ff ff                 ???     
ff174: ff ff                 ???     
ff176: ff ff                 ???     
ff178: ff ff                 ???     
ff17a: ff ff                 ???     
ff17c: ff ff                 ???     
ff17e: ff ff                 ???     
ff180: ff ff                 ???     
ff182: ff ff                 ???     
ff184: ff ff                 ???     
ff186: ff ff                 ???     
ff188: ff ff                 ???     
ff18a: ff ff                 ???     
ff18c: ff ff                 ???     
ff18e: ff ff                 ???     
ff190: ff ff                 ???     
ff192: ff ff                 ???     
ff194: ff ff                 ???     
ff196: ff ff                 ???     
ff198: ff ff                 ???     
ff19a: ff ff                 ???     
ff19c: ff ff                 ???     
ff19e: ff ff                 ???     
ff1a0: ff ff                 ???     
ff1a2: ff ff                 ???     
ff1a4: ff ff                 ???     
ff1a6: ff ff                 ???     
ff1a8: ff ff                 ???     
ff1aa: ff ff                 ???     
ff1ac: ff ff                 ???     
ff1ae: ff ff                 ???     
ff1b0: ff ff                 ???     
ff1b2: ff ff                 ???     
ff1b4: ff ff                 ???     
ff1b6: ff ff                 ???     
ff1b8: ff ff                 ???     
ff1ba: ff ff                 ???     
ff1bc: ff ff                 ???     
ff1be: ff ff                 ???     
ff1c0: ff ff                 ???     
ff1c2: ff ff                 ???     
ff1c4: ff ff                 ???     
ff1c6: ff ff                 ???     
ff1c8: ff ff                 ???     
ff1ca: ff ff                 ???     
ff1cc: ff ff                 ???     
ff1ce: ff ff                 ???     
ff1d0: ff ff                 ???     
ff1d2: ff ff                 ???     
ff1d4: ff ff                 ???     
ff1d6: ff ff                 ???     
ff1d8: ff ff                 ???     
ff1da: ff ff                 ???     
ff1dc: ff ff                 ???     
ff1de: ff ff                 ???     
ff1e0: ff ff                 ???     
ff1e2: ff ff                 ???     
ff1e4: ff ff                 ???     
ff1e6: ff ff                 ???     
ff1e8: ff ff                 ???     
ff1ea: ff ff                 ???     
ff1ec: ff ff                 ???     
ff1ee: ff ff                 ???     
ff1f0: ff ff                 ???     
ff1f2: ff ff                 ???     
ff1f4: ff ff                 ???     
ff1f6: ff ff                 ???     
ff1f8: ff ff                 ???     
ff1fa: ff ff                 ???     
ff1fc: ff ff                 ???     
ff1fe: ff ff                 ???     
ff200: ff ff                 ???     
ff202: ff ff                 ???     
ff204: ff ff                 ???     
ff206: ff ff                 ???     
ff208: ff ff                 ???     
ff20a: ff ff                 ???     
ff20c: ff ff                 ???     
ff20e: ff ff                 ???     
ff210: ff ff                 ???     
ff212: ff ff                 ???     
ff214: ff ff                 ???     
ff216: ff ff                 ???     
ff218: ff ff                 ???     
ff21a: ff ff                 ???     
ff21c: ff ff                 ???     
ff21e: ff ff                 ???     
ff220: ff ff                 ???     
ff222: ff ff                 ???     
ff224: ff ff                 ???     
ff226: ff ff                 ???     
ff228: ff ff                 ???     
ff22a: ff ff                 ???     
ff22c: ff ff                 ???     
ff22e: ff ff                 ???     
ff230: ff ff                 ???     
ff232: ff ff                 ???     
ff234: ff ff                 ???     
ff236: ff ff                 ???     
ff238: ff ff                 ???     
ff23a: ff ff                 ???     
ff23c: ff ff                 ???     
ff23e: ff ff                 ???     
ff240: ff ff                 ???     
ff242: ff ff                 ???     
ff244: ff ff                 ???     
ff246: ff ff                 ???     
ff248: ff ff                 ???     
ff24a: ff ff                 ???     
ff24c: ff ff                 ???     
ff24e: ff ff                 ???     
ff250: ff ff                 ???     
ff252: ff ff                 ???     
ff254: ff ff                 ???     
ff256: ff ff                 ???     
ff258: ff ff                 ???     
ff25a: ff ff                 ???     
ff25c: ff ff                 ???     
ff25e: ff ff                 ???     
ff260: ff ff                 ???     
ff262: ff ff                 ???     
ff264: ff ff                 ???     
ff266: ff ff                 ???     
ff268: ff ff                 ???     
ff26a: ff ff                 ???     
ff26c: ff ff                 ???     
ff26e: ff ff                 ???     
ff270: ff ff                 ???     
ff272: ff ff                 ???     
ff274: ff ff                 ???     
ff276: ff ff                 ???     
ff278: ff ff                 ???     
ff27a: ff ff                 ???     
ff27c: ff ff                 ???     
ff27e: ff ff                 ???     
ff280: ff ff                 ???     
ff282: ff ff                 ???     
ff284: ff ff                 ???     
ff286: ff ff                 ???     
ff288: ff ff                 ???     
ff28a: ff ff                 ???     
ff28c: ff ff                 ???     
ff28e: ff ff                 ???     
ff290: ff ff                 ???     
ff292: ff ff                 ???     
ff294: ff ff                 ???     
ff296: ff ff                 ???     
ff298: ff ff                 ???     
ff29a: ff ff                 ???     
ff29c: ff ff                 ???     
ff29e: ff ff                 ???     
ff2a0: ff ff                 ???     
ff2a2: ff ff                 ???     
ff2a4: ff ff                 ???     
ff2a6: ff ff                 ???     
ff2a8: ff ff                 ???     
ff2aa: ff ff                 ???     
ff2ac: ff ff                 ???     
ff2ae: ff ff                 ???     
ff2b0: ff ff                 ???     
ff2b2: ff ff                 ???     
ff2b4: ff ff                 ???     
ff2b6: ff ff                 ???     
ff2b8: ff ff                 ???     
ff2ba: ff ff                 ???     
ff2bc: ff ff                 ???     
ff2be: ff ff                 ???     
ff2c0: ff ff                 ???     
ff2c2: ff ff                 ???     
ff2c4: ff ff                 ???     
ff2c6: ff ff                 ???     
ff2c8: ff ff                 ???     
ff2ca: ff ff                 ???     
ff2cc: ff ff                 ???     
ff2ce: ff ff                 ???     
ff2d0: ff ff                 ???     
ff2d2: ff ff                 ???     
ff2d4: ff ff                 ???     
ff2d6: ff ff                 ???     
ff2d8: ff ff                 ???     
ff2da: ff ff                 ???     
ff2dc: ff ff                 ???     
ff2de: ff ff                 ???     
ff2e0: ff ff                 ???     
ff2e2: ff ff                 ???     
ff2e4: ff ff                 ???     
ff2e6: ff ff                 ???     
ff2e8: ff ff                 ???     
ff2ea: ff ff                 ???     
ff2ec: ff ff                 ???     
ff2ee: ff ff                 ???     
ff2f0: ff ff                 ???     
ff2f2: ff ff                 ???     
ff2f4: ff ff                 ???     
ff2f6: ff ff                 ???     
ff2f8: ff ff                 ???     
ff2fa: ff ff                 ???     
ff2fc: ff ff                 ???     
ff2fe: ff ff                 ???     
ff300: ff ff                 ???     
ff302: ff ff                 ???     
ff304: ff ff                 ???     
ff306: ff ff                 ???     
ff308: ff ff                 ???     
ff30a: ff ff                 ???     
ff30c: ff ff                 ???     
ff30e: ff ff                 ???     
ff310: ff ff                 ???     
ff312: ff ff                 ???     
ff314: ff ff                 ???     
ff316: ff ff                 ???     
ff318: ff ff                 ???     
ff31a: ff ff                 ???     
ff31c: ff ff                 ???     
ff31e: ff ff                 ???     
ff320: ff ff                 ???     
ff322: ff ff                 ???     
ff324: ff ff                 ???     
ff326: ff ff                 ???     
ff328: ff ff                 ???     
ff32a: ff ff                 ???     
ff32c: ff ff                 ???     
ff32e: ff ff                 ???     
ff330: ff ff                 ???     
ff332: ff ff                 ???     
ff334: ff ff                 ???     
ff336: ff ff                 ???     
ff338: ff ff                 ???     
ff33a: ff ff                 ???     
ff33c: ff ff                 ???     
ff33e: ff ff                 ???     
ff340: ff ff                 ???     
ff342: ff ff                 ???     
ff344: ff ff                 ???     
ff346: ff ff                 ???     
ff348: ff ff                 ???     
ff34a: ff ff                 ???     
ff34c: ff ff                 ???     
ff34e: ff ff                 ???     
ff350: ff ff                 ???     
ff352: ff ff                 ???     
ff354: ff ff                 ???     
ff356: ff ff                 ???     
ff358: ff ff                 ???     
ff35a: ff ff                 ???     
ff35c: ff ff                 ???     
ff35e: ff ff                 ???     
ff360: ff ff                 ???     
ff362: ff ff                 ???     
ff364: ff ff                 ???     
ff366: ff ff                 ???     
ff368: ff ff                 ???     
ff36a: ff ff                 ???     
ff36c: ff ff                 ???     
ff36e: ff ff                 ???     
ff370: ff ff                 ???     
ff372: ff ff                 ???     
ff374: ff ff                 ???     
ff376: ff ff                 ???     
ff378: ff ff                 ???     
ff37a: ff ff                 ???     
ff37c: ff ff                 ???     
ff37e: ff ff                 ???     
ff380: ff ff                 ???     
ff382: ff ff                 ???     
ff384: ff ff                 ???     
ff386: ff ff                 ???     
ff388: ff ff                 ???     
ff38a: ff ff                 ???     
ff38c: ff ff                 ???     
ff38e: ff ff                 ???     
ff390: ff ff                 ???     
ff392: ff ff                 ???     
ff394: ff ff                 ???     
ff396: ff ff                 ???     
ff398: ff ff                 ???     
ff39a: ff ff                 ???     
ff39c: ff ff                 ???     
ff39e: ff ff                 ???     
ff3a0: ff ff                 ???     
ff3a2: ff ff                 ???     
ff3a4: ff ff                 ???     
ff3a6: ff ff                 ???     
ff3a8: ff ff                 ???     
ff3aa: ff ff                 ???     
ff3ac: ff ff                 ???     
ff3ae: ff ff                 ???     
ff3b0: ff ff                 ???     
ff3b2: ff ff                 ???     
ff3b4: ff ff                 ???     
ff3b6: ff ff                 ???     
ff3b8: ff ff                 ???     
ff3ba: ff ff                 ???     
ff3bc: ff ff                 ???     
ff3be: ff ff                 ???     
ff3c0: ff ff                 ???     
ff3c2: ff ff                 ???     
ff3c4: ff ff                 ???     
ff3c6: ff ff                 ???     
ff3c8: ff ff                 ???     
ff3ca: ff ff                 ???     
ff3cc: ff ff                 ???     
ff3ce: ff ff                 ???     
ff3d0: ff ff                 ???     
ff3d2: ff ff                 ???     
ff3d4: ff ff                 ???     
ff3d6: ff ff                 ???     
ff3d8: ff ff                 ???     
ff3da: ff ff                 ???     
ff3dc: ff ff                 ???     
ff3de: ff ff                 ???     
ff3e0: ff ff                 ???     
ff3e2: ff ff                 ???     
ff3e4: ff ff                 ???     
ff3e6: ff ff                 ???     
ff3e8: ff ff                 ???     
ff3ea: ff ff                 ???     
ff3ec: ff ff                 ???     
ff3ee: ff ff                 ???     
ff3f0: ff ff                 ???     
ff3f2: ff ff                 ???     
ff3f4: ff ff                 ???     
ff3f6: ff ff                 ???     
ff3f8: ff ff                 ???     
ff3fa: ff ff                 ???     
ff3fc: ff ff                 ???     
ff3fe: ff ff                 ???     
ff400: ff ff                 ???     
ff402: ff ff                 ???     
ff404: ff ff                 ???     
ff406: ff ff                 ???     
ff408: ff ff                 ???     
ff40a: ff ff                 ???     
ff40c: ff ff                 ???     
ff40e: ff ff                 ???     
ff410: ff ff                 ???     
ff412: ff ff                 ???     
ff414: ff ff                 ???     
ff416: ff ff                 ???     
ff418: ff ff                 ???     
ff41a: ff ff                 ???     
ff41c: ff ff                 ???     
ff41e: ff ff                 ???     
ff420: ff ff                 ???     
ff422: ff ff                 ???     
ff424: ff ff                 ???     
ff426: ff ff                 ???     
ff428: ff ff                 ???     
ff42a: ff ff                 ???     
ff42c: ff ff                 ???     
ff42e: ff ff                 ???     
ff430: ff ff                 ???     
ff432: ff ff                 ???     
ff434: ff ff                 ???     
ff436: ff ff                 ???     
ff438: ff ff                 ???     
ff43a: ff ff                 ???     
ff43c: ff ff                 ???     
ff43e: ff ff                 ???     
ff440: ff ff                 ???     
ff442: ff ff                 ???     
ff444: ff ff                 ???     
ff446: ff ff                 ???     
ff448: ff ff                 ???     
ff44a: ff ff                 ???     
ff44c: ff ff                 ???     
ff44e: ff ff                 ???     
ff450: ff ff                 ???     
ff452: ff ff                 ???     
ff454: ff ff                 ???     
ff456: ff ff                 ???     
ff458: ff ff                 ???     
ff45a: ff ff                 ???     
ff45c: ff ff                 ???     
ff45e: ff ff                 ???     
ff460: ff ff                 ???     
ff462: ff ff                 ???     
ff464: ff ff                 ???     
ff466: ff ff                 ???     
ff468: ff ff                 ???     
ff46a: ff ff                 ???     
ff46c: ff ff                 ???     
ff46e: ff ff                 ???     
ff470: ff ff                 ???     
ff472: ff ff                 ???     
ff474: ff ff                 ???     
ff476: ff ff                 ???     
ff478: ff ff                 ???     
ff47a: ff ff                 ???     
ff47c: ff ff                 ???     
ff47e: ff ff                 ???     
ff480: ff ff                 ???     
ff482: ff ff                 ???     
ff484: ff ff                 ???     
ff486: ff ff                 ???     
ff488: ff ff                 ???     
ff48a: ff ff                 ???     
ff48c: ff ff                 ???     
ff48e: ff ff                 ???     
ff490: ff ff                 ???     
ff492: ff ff                 ???     
ff494: ff ff                 ???     
ff496: ff ff                 ???     
ff498: ff ff                 ???     
ff49a: ff ff                 ???     
ff49c: ff ff                 ???     
ff49e: ff ff                 ???     
ff4a0: ff ff                 ???     
ff4a2: ff ff                 ???     
ff4a4: ff ff                 ???     
ff4a6: ff ff                 ???     
ff4a8: ff ff                 ???     
ff4aa: ff ff                 ???     
ff4ac: ff ff                 ???     
ff4ae: ff ff                 ???     
ff4b0: ff ff                 ???     
ff4b2: ff ff                 ???     
ff4b4: ff ff                 ???     
ff4b6: ff ff                 ???     
ff4b8: ff ff                 ???     
ff4ba: ff ff                 ???     
ff4bc: ff ff                 ???     
ff4be: ff ff                 ???     
ff4c0: ff ff                 ???     
ff4c2: ff ff                 ???     
ff4c4: ff ff                 ???     
ff4c6: ff ff                 ???     
ff4c8: ff ff                 ???     
ff4ca: ff ff                 ???     
ff4cc: ff ff                 ???     
ff4ce: ff ff                 ???     
ff4d0: ff ff                 ???     
ff4d2: ff ff                 ???     
ff4d4: ff ff                 ???     
ff4d6: ff ff                 ???     
ff4d8: ff ff                 ???     
ff4da: ff ff                 ???     
ff4dc: ff ff                 ???     
ff4de: ff ff                 ???     
ff4e0: ff ff                 ???     
ff4e2: ff ff                 ???     
ff4e4: ff ff                 ???     
ff4e6: ff ff                 ???     
ff4e8: ff ff                 ???     
ff4ea: ff ff                 ???     
ff4ec: ff ff                 ???     
ff4ee: ff ff                 ???     
ff4f0: ff ff                 ???     
ff4f2: ff ff                 ???     
ff4f4: ff ff                 ???     
ff4f6: ff ff                 ???     
ff4f8: ff ff                 ???     
ff4fa: ff ff                 ???     
ff4fc: ff ff                 ???     
ff4fe: ff ff                 ???     
ff500: ff ff                 ???     
ff502: ff ff                 ???     
ff504: ff ff                 ???     
ff506: ff ff                 ???     
ff508: ff ff                 ???     
ff50a: ff ff                 ???     
ff50c: ff ff                 ???     
ff50e: ff ff                 ???     
ff510: ff ff                 ???     
ff512: ff ff                 ???     
ff514: ff ff                 ???     
ff516: ff ff                 ???     
ff518: ff ff                 ???     
ff51a: ff ff                 ???     
ff51c: ff ff                 ???     
ff51e: ff ff                 ???     
ff520: ff ff                 ???     
ff522: ff ff                 ???     
ff524: ff ff                 ???     
ff526: ff ff                 ???     
ff528: ff ff                 ???     
ff52a: ff ff                 ???     
ff52c: ff ff                 ???     
ff52e: ff ff                 ???     
ff530: ff ff                 ???     
ff532: ff ff                 ???     
ff534: ff ff                 ???     
ff536: ff ff                 ???     
ff538: ff ff                 ???     
ff53a: ff ff                 ???     
ff53c: ff ff                 ???     
ff53e: ff ff                 ???     
ff540: ff ff                 ???     
ff542: ff ff                 ???     
ff544: ff ff                 ???     
ff546: ff ff                 ???     
ff548: ff ff                 ???     
ff54a: ff ff                 ???     
ff54c: ff ff                 ???     
ff54e: ff ff                 ???     
ff550: ff ff                 ???     
ff552: ff ff                 ???     
ff554: ff ff                 ???     
ff556: ff ff                 ???     
ff558: ff ff                 ???     
ff55a: ff ff                 ???     
ff55c: ff ff                 ???     
ff55e: ff ff                 ???     
ff560: ff ff                 ???     
ff562: ff ff                 ???     
ff564: ff ff                 ???     
ff566: ff ff                 ???     
ff568: ff ff                 ???     
ff56a: ff ff                 ???     
ff56c: ff ff                 ???     
ff56e: ff ff                 ???     
ff570: ff ff                 ???     
ff572: ff ff                 ???     
ff574: ff ff                 ???     
ff576: ff ff                 ???     
ff578: ff ff                 ???     
ff57a: ff ff                 ???     
ff57c: ff ff                 ???     
ff57e: ff ff                 ???     
ff580: ff ff                 ???     
ff582: ff ff                 ???     
ff584: ff ff                 ???     
ff586: ff ff                 ???     
ff588: ff ff                 ???     
ff58a: ff ff                 ???     
ff58c: ff ff                 ???     
ff58e: ff ff                 ???     
ff590: ff ff                 ???     
ff592: ff ff                 ???     
ff594: ff ff                 ???     
ff596: ff ff                 ???     
ff598: ff ff                 ???     
ff59a: ff ff                 ???     
ff59c: ff ff                 ???     
ff59e: ff ff                 ???     
ff5a0: ff ff                 ???     
ff5a2: ff ff                 ???     
ff5a4: ff ff                 ???     
ff5a6: ff ff                 ???     
ff5a8: ff ff                 ???     
ff5aa: ff ff                 ???     
ff5ac: ff ff                 ???     
ff5ae: ff ff                 ???     
ff5b0: ff ff                 ???     
ff5b2: ff ff                 ???     
ff5b4: ff ff                 ???     
ff5b6: ff ff                 ???     
ff5b8: ff ff                 ???     
ff5ba: ff ff                 ???     
ff5bc: ff ff                 ???     
ff5be: ff ff                 ???     
ff5c0: ff ff                 ???     
ff5c2: ff ff                 ???     
ff5c4: ff ff                 ???     
ff5c6: ff ff                 ???     
ff5c8: ff ff                 ???     
ff5ca: ff ff                 ???     
ff5cc: ff ff                 ???     
ff5ce: ff ff                 ???     
ff5d0: ff ff                 ???     
ff5d2: ff ff                 ???     
ff5d4: ff ff                 ???     
ff5d6: ff ff                 ???     
ff5d8: ff ff                 ???     
ff5da: ff ff                 ???     
ff5dc: ff ff                 ???     
ff5de: ff ff                 ???     
ff5e0: ff ff                 ???     
ff5e2: ff ff                 ???     
ff5e4: ff ff                 ???     
ff5e6: ff ff                 ???     
ff5e8: ff ff                 ???     
ff5ea: ff ff                 ???     
ff5ec: ff ff                 ???     
ff5ee: ff ff                 ???     
ff5f0: ff ff                 ???     
ff5f2: ff ff                 ???     
ff5f4: ff ff                 ???     
ff5f6: ff ff                 ???     
ff5f8: ff ff                 ???     
ff5fa: ff ff                 ???     
ff5fc: ff ff                 ???     
ff5fe: ff ff                 ???     
ff600: ff ff                 ???     
ff602: ff ff                 ???     
ff604: ff ff                 ???     
ff606: ff ff                 ???     
ff608: ff ff                 ???     
ff60a: ff ff                 ???     
ff60c: ff ff                 ???     
ff60e: ff ff                 ???     
ff610: ff ff                 ???     
ff612: ff ff                 ???     
ff614: ff ff                 ???     
ff616: ff ff                 ???     
ff618: ff ff                 ???     
ff61a: ff ff                 ???     
ff61c: ff ff                 ???     
ff61e: ff ff                 ???     
ff620: ff ff                 ???     
ff622: ff ff                 ???     
ff624: ff ff                 ???     
ff626: ff ff                 ???     
ff628: ff ff                 ???     
ff62a: ff ff                 ???     
ff62c: ff ff                 ???     
ff62e: ff ff                 ???     
ff630: ff ff                 ???     
ff632: ff ff                 ???     
ff634: ff ff                 ???     
ff636: ff ff                 ???     
ff638: ff ff                 ???     
ff63a: ff ff                 ???     
ff63c: ff ff                 ???     
ff63e: ff ff                 ???     
ff640: ff ff                 ???     
ff642: ff ff                 ???     
ff644: ff ff                 ???     
ff646: ff ff                 ???     
ff648: ff ff                 ???     
ff64a: ff ff                 ???     
ff64c: ff ff                 ???     
ff64e: ff ff                 ???     
ff650: ff ff                 ???     
ff652: ff ff                 ???     
ff654: ff ff                 ???     
ff656: ff ff                 ???     
ff658: ff ff                 ???     
ff65a: ff ff                 ???     
ff65c: ff ff                 ???     
ff65e: ff ff                 ???     
ff660: ff ff                 ???     
ff662: ff ff                 ???     
ff664: ff ff                 ???     
ff666: ff ff                 ???     
ff668: ff ff                 ???     
ff66a: ff ff                 ???     
ff66c: ff ff                 ???     
ff66e: ff ff                 ???     
ff670: ff ff                 ???     
ff672: ff ff                 ???     
ff674: ff ff                 ???     
ff676: ff ff                 ???     
ff678: ff ff                 ???     
ff67a: ff ff                 ???     
ff67c: ff ff                 ???     
ff67e: ff ff                 ???     
ff680: ff ff                 ???     
ff682: ff ff                 ???     
ff684: ff ff                 ???     
ff686: ff ff                 ???     
ff688: ff ff                 ???     
ff68a: ff ff                 ???     
ff68c: ff ff                 ???     
ff68e: ff ff                 ???     
ff690: ff ff                 ???     
ff692: ff ff                 ???     
ff694: ff ff                 ???     
ff696: ff ff                 ???     
ff698: ff ff                 ???     
ff69a: ff ff                 ???     
ff69c: ff ff                 ???     
ff69e: ff ff                 ???     
ff6a0: ff ff                 ???     
ff6a2: ff ff                 ???     
ff6a4: ff ff                 ???     
ff6a6: ff ff                 ???     
ff6a8: ff ff                 ???     
ff6aa: ff ff                 ???     
ff6ac: ff ff                 ???     
ff6ae: ff ff                 ???     
ff6b0: ff ff                 ???     
ff6b2: ff ff                 ???     
ff6b4: ff ff                 ???     
ff6b6: ff ff                 ???     
ff6b8: ff ff                 ???     
ff6ba: ff ff                 ???     
ff6bc: ff ff                 ???     
ff6be: ff ff                 ???     
ff6c0: ff ff                 ???     
ff6c2: ff ff                 ???     
ff6c4: ff ff                 ???     
ff6c6: ff ff                 ???     
ff6c8: ff ff                 ???     
ff6ca: ff ff                 ???     
ff6cc: ff ff                 ???     
ff6ce: ff ff                 ???     
ff6d0: ff ff                 ???     
ff6d2: ff ff                 ???     
ff6d4: ff ff                 ???     
ff6d6: ff ff                 ???     
ff6d8: ff ff                 ???     
ff6da: ff ff                 ???     
ff6dc: ff ff                 ???     
ff6de: ff ff                 ???     
ff6e0: ff ff                 ???     
ff6e2: ff ff                 ???     
ff6e4: ff ff                 ???     
ff6e6: ff ff                 ???     
ff6e8: ff ff                 ???     
ff6ea: ff ff                 ???     
ff6ec: ff ff                 ???     
ff6ee: ff ff                 ???     
ff6f0: ff ff                 ???     
ff6f2: ff ff                 ???     
ff6f4: ff ff                 ???     
ff6f6: ff ff                 ???     
ff6f8: ff ff                 ???     
ff6fa: ff ff                 ???     
ff6fc: ff ff                 ???     
ff6fe: ff ff                 ???     
ff700: ff ff                 ???     
ff702: ff ff                 ???     
ff704: ff ff                 ???     
ff706: ff ff                 ???     
ff708: ff ff                 ???     
ff70a: ff ff                 ???     
ff70c: ff ff                 ???     
ff70e: ff ff                 ???     
ff710: ff ff                 ???     
ff712: ff ff                 ???     
ff714: ff ff                 ???     
ff716: ff ff                 ???     
ff718: ff ff                 ???     
ff71a: ff ff                 ???     
ff71c: ff ff                 ???     
ff71e: ff ff                 ???     
ff720: ff ff                 ???     
ff722: ff ff                 ???     
ff724: ff ff                 ???     
ff726: ff ff                 ???     
ff728: ff ff                 ???     
ff72a: ff ff                 ???     
ff72c: ff ff                 ???     
ff72e: ff ff                 ???     
ff730: ff ff                 ???     
ff732: ff ff                 ???     
ff734: ff ff                 ???     
ff736: ff ff                 ???     
ff738: ff ff                 ???     
ff73a: ff ff                 ???     
ff73c: ff ff                 ???     
ff73e: ff ff                 ???     
ff740: ff ff                 ???     
ff742: ff ff                 ???     
ff744: ff ff                 ???     
ff746: ff ff                 ???     
ff748: ff ff                 ???     
ff74a: ff ff                 ???     
ff74c: ff ff                 ???     
ff74e: ff ff                 ???     
ff750: ff ff                 ???     
ff752: ff ff                 ???     
ff754: ff ff                 ???     
ff756: ff ff                 ???     
ff758: ff ff                 ???     
ff75a: ff ff                 ???     
ff75c: ff ff                 ???     
ff75e: ff ff                 ???     
ff760: ff ff                 ???     
ff762: ff ff                 ???     
ff764: ff ff                 ???     
ff766: ff ff                 ???     
ff768: ff ff                 ???     
ff76a: ff ff                 ???     
ff76c: ff ff                 ???     
ff76e: ff ff                 ???     
ff770: ff ff                 ???     
ff772: ff ff                 ???     
ff774: ff ff                 ???     
ff776: ff ff                 ???     
ff778: ff ff                 ???     
ff77a: ff ff                 ???     
ff77c: ff ff                 ???     
ff77e: ff ff                 ???     
ff780: ff ff                 ???     
ff782: ff ff                 ???     
ff784: ff ff                 ???     
ff786: ff ff                 ???     
ff788: ff ff                 ???     
ff78a: ff ff                 ???     
ff78c: ff ff                 ???     
ff78e: ff ff                 ???     
ff790: ff ff                 ???     
ff792: ff ff                 ???     
ff794: ff ff                 ???     
ff796: ff ff                 ???     
ff798: ff ff                 ???     
ff79a: ff ff                 ???     
ff79c: ff ff                 ???     
ff79e: ff ff                 ???     
ff7a0: ff ff                 ???     
ff7a2: ff ff                 ???     
ff7a4: ff ff                 ???     
ff7a6: ff ff                 ???     
ff7a8: ff ff                 ???     
ff7aa: ff ff                 ???     
ff7ac: ff ff                 ???     
ff7ae: ff ff                 ???     
ff7b0: ff ff                 ???     
ff7b2: ff ff                 ???     
ff7b4: ff ff                 ???     
ff7b6: ff ff                 ???     
ff7b8: ff ff                 ???     
ff7ba: ff ff                 ???     
ff7bc: ff ff                 ???     
ff7be: ff ff                 ???     
ff7c0: ff ff                 ???     
ff7c2: ff ff                 ???     
ff7c4: ff ff                 ???     
ff7c6: ff ff                 ???     
ff7c8: ff ff                 ???     
ff7ca: ff ff                 ???     
ff7cc: ff ff                 ???     
ff7ce: ff ff                 ???     
ff7d0: ff ff                 ???     
ff7d2: ff ff                 ???     
ff7d4: ff ff                 ???     
ff7d6: ff ff                 ???     
ff7d8: ff ff                 ???     
ff7da: ff ff                 ???     
ff7dc: ff ff                 ???     
ff7de: ff ff                 ???     
ff7e0: ff ff                 ???     
ff7e2: ff ff                 ???     
ff7e4: ff ff                 ???     
ff7e6: ff ff                 ???     
ff7e8: ff ff                 ???     
ff7ea: ff ff                 ???     
ff7ec: ff ff                 ???     
ff7ee: ff ff                 ???     
ff7f0: ff ff                 ???     
ff7f2: ff ff                 ???     
ff7f4: ff ff                 ???     
ff7f6: ff ff                 ???     
ff7f8: ff ff                 ???     
ff7fa: ff ff                 ???     
ff7fc: ff ff                 ???     
ff7fe: ff ff                 ???     
ff800: d0 46 e0              rol     byte ptr [bp-20h],1
ff803: 46                    inc     si
ff804: f0                    lock    
ff805: 46                    inc     si
ff806: 10 47 42              adc     [bx+42h],al
ff809: 47                    inc     di
ff80a: 5c                    pop     sp
ff80b: 47                    inc     di
ff80c: c8 46 3a 47           enter   3A46h,47h
ff810: 76 47                 jbe     0FF859h
ff812: 00 00                 add     [bx+si],al
ff814: 00 00                 add     [bx+si],al
ff816: 00 00                 add     [bx+si],al
ff818: 00 00                 add     [bx+si],al
ff81a: 2a 47 c0              sub     al,[bx-40h]
ff81d: 46                    inc     si
ff81e: c4 47 c0              les     ax,[bx-40h]
ff821: 08 3b                 or      [bp+di],bh
ff823: ba 00 00              mov     dx,0h
ff826: 00 00                 add     [bx+si],al
ff828: 00 08                 add     [bx+si],cl
ff82a: c4 ba 00 00           les     di,[bp+si]
ff82e: 00 00                 add     [bx+si],al
ff830: 00 10                 add     [bx+si],dl
ff832: 89 b9 00 00           mov     [bx+di],di
ff836: 00 00                 add     [bx+si],al
ff838: 20 46 00              and     [bp],al
ff83b: 00 00                 add     [bx+si],al
ff83d: 00 ff                 add     bh,bh
ff83f: ff 46 10              inc     word ptr [bp+10h]
ff842: 89 b9 00 00           mov     [bx+di],di
ff846: 00 1f                 add     [bx],bl
ff848: b0 45                 mov     al,45h
ff84a: 28 00                 sub     [bx+si],al
ff84c: 00 00                 add     [bx+si],al
ff84e: ff ff                 ???     
ff850: 00 20                 add     [bx+si],ah
ff852: 31 ba f8 46           xor     [bp+si+46F8h],di
ff856: 00 f4                 add     ah,dh
ff858: cb                    retf    
ff859: 00 00                 add     [bx+si],al
ff85b: 00 00                 add     [bx+si],al
ff85d: 00 00                 add     [bx+si],al
ff85f: 00 00                 add     [bx+si],al
ff861: 00 00                 add     [bx+si],al
ff863: 00 00                 add     [bx+si],al
ff865: 00 00                 add     [bx+si],al
ff867: 00 00                 add     [bx+si],al
ff869: 00 00                 add     [bx+si],al
ff86b: 00 00                 add     [bx+si],al
ff86d: 00 00                 add     [bx+si],al
ff86f: 00 00                 add     [bx+si],al
ff871: 1a fd                 sbb     bh,ch
ff873: b9 00 00              mov     cx,0h
ff876: 00 1f                 add     [bx],bl
ff878: 00 48 00              add     [bx+si],cl
ff87b: f4                    hlt     
ff87c: 00 00                 add     [bx+si],al
ff87e: 00 1f                 add     [bx],bl
ff880: 00 00                 add     [bx+si],al
ff882: 00 00                 add     [bx+si],al
ff884: 00 00                 add     [bx+si],al
ff886: 00 00                 add     [bx+si],al
ff888: 00 00                 add     [bx+si],al
ff88a: 00 10                 add     [bx+si],dl
ff88c: 3c bb                 cmp     al,0BBh
ff88e: 00 00                 add     [bx+si],al
ff890: 00 00                 add     [bx+si],al
ff892: 00 00                 add     [bx+si],al
ff894: 00 00                 add     [bx+si],al
ff896: 00 00                 add     [bx+si],al
ff898: 00 00                 add     [bx+si],al
ff89a: 80 08 65              or      byte ptr [bx+si],65h
ff89d: b9 c4 47              mov     cx,47C4h
ff8a0: ff ff                 ???     
ff8a2: 00 1a                 add     [bp+si],bl
ff8a4: fd                    std     
ff8a5: b9 00 00              mov     cx,0h
ff8a8: 00 1f                 add     [bx],bl
ff8aa: 00 48 00              add     [bx+si],cl
ff8ad: f4                    hlt     
ff8ae: 00 00                 add     [bx+si],al
ff8b0: 00 1f                 add     [bx],bl
ff8b2: 00 00                 add     [bx+si],al
ff8b4: 00 00                 add     [bx+si],al
ff8b6: 00 00                 add     [bx+si],al
ff8b8: 00 00                 add     [bx+si],al
ff8ba: 00 00                 add     [bx+si],al
ff8bc: 00 1a                 add     [bp+si],bl
ff8be: fd                    std     
ff8bf: b9 00 00              mov     cx,0h
ff8c2: 00 1f                 add     [bx],bl
ff8c4: 00 48 00              add     [bx+si],cl
ff8c7: f4                    hlt     
ff8c8: 00 00                 add     [bx+si],al
ff8ca: 00 1f                 add     [bx],bl
ff8cc: 00 00                 add     [bx+si],al
ff8ce: 00 00                 add     [bx+si],al
ff8d0: 00 00                 add     [bx+si],al
ff8d2: 00 00                 add     [bx+si],al
ff8d4: 00 00                 add     [bx+si],al
ff8d6: 00 4e 00              add     [bp],cl
ff8d9: 00 00                 add     [bx+si],al
ff8db: 00 00                 add     [bx+si],al
ff8dd: 00 00                 add     [bx+si],al
ff8df: 00 00                 add     [bx+si],al
ff8e1: 00 00                 add     [bx+si],al
ff8e3: 00 00                 add     [bx+si],al
ff8e5: 00 00                 add     [bx+si],al
ff8e7: 00 00                 add     [bx+si],al
ff8e9: 00 00                 add     [bx+si],al
ff8eb: 00 00                 add     [bx+si],al
ff8ed: 00 00                 add     [bx+si],al
ff8ef: 00 00                 add     [bx+si],al
ff8f1: 00 00                 add     [bx+si],al
ff8f3: 00 00                 add     [bx+si],al
ff8f5: 00 00                 add     [bx+si],al
ff8f7: 00 00                 add     [bx+si],al
ff8f9: 00 00                 add     [bx+si],al
ff8fb: 00 00                 add     [bx+si],al
ff8fd: 00 00                 add     [bx+si],al
ff8ff: 00 00                 add     [bx+si],al
ff901: 00 00                 add     [bx+si],al
ff903: 00 00                 add     [bx+si],al
ff905: 00 00                 add     [bx+si],al
ff907: 00 00                 add     [bx+si],al
ff909: 00 00                 add     [bx+si],al
ff90b: 00 00                 add     [bx+si],al
ff90d: 00 00                 add     [bx+si],al
ff90f: 00 00                 add     [bx+si],al
ff911: 00 00                 add     [bx+si],al
ff913: 00 00                 add     [bx+si],al
ff915: 00 00                 add     [bx+si],al
ff917: 00 00                 add     [bx+si],al
ff919: 00 00                 add     [bx+si],al
ff91b: 00 00                 add     [bx+si],al
ff91d: 00 00                 add     [bx+si],al
ff91f: 00 00                 add     [bx+si],al
ff921: 00 00                 add     [bx+si],al
ff923: 00 82 06 65           add     [bp+si+6506h],al
ff927: b9 c0 46              mov     cx,46C0h
ff92a: 00 00                 add     [bx+si],al
ff92c: ff ff                 ???     
ff92e: ff ff                 ???     
ff930: fa                    cli     
ff931: f4                    hlt     
ff932: fa                    cli     
ff933: f4                    hlt     
ff934: fa                    cli     
ff935: f4                    hlt     
ff936: fa                    cli     
ff937: f4                    hlt     
ff938: ff 06 00 46           inc     word ptr [4600h]
ff93c: a1 04 46              mov     ax,[4604h]
ff93f: fa                    cli     
ff940: ff 06 16 46           inc     word ptr [4616h]
ff944: f6 07 40              test    byte ptr [bx],40h
ff947: 75 17                 jne     0FF960h
ff949: 8b d8                 mov     bx,ax
ff94b: 8a 47 01              mov     al,[bx+1h]
ff94e: 98                    cbw     
ff94f: 03 c3                 add     ax,bx
ff951: f6 07 80              test    byte ptr [bx],80h
ff954: 74 f3                 je      0FF949h
ff956: a3 04 46              mov     [4604h],ax
ff959: 89 1e 02 46           mov     [4602h],bx
ff95d: ff 67 02              jmp     word ptr [bx+2h]
ff960: 80 27 7f              and     byte ptr [bx],7Fh
ff963: eb e4                 jmp     0FF949h
ff965: f6 07 01              test    byte ptr [bx],1h
ff968: 75 01                 jne     0FF96Bh
ff96a: fb                    sti     
ff96b: f6 07 02              test    byte ptr [bx],2h
ff96e: 74 0d                 je      0FF97Dh
ff970: f7 06 12 46 ff ff     test    word ptr [4612h],0FFFFh
ff976: 74 05                 je      0FF97Dh
ff978: f0                    lock    
ff979: ff 0e 12 46           dec     word ptr [4612h]
ff97d: 8b 47 04              mov     ax,[bx+4h]
ff980: eb bd                 jmp     0FF93Fh
ff982: e3 bb                 jcxz    0FF93Fh
ff984: 03 47 04              add     ax,[bx+4h]
ff987: eb b6                 jmp     0FF93Fh
ff989: 8b 4f 0a              mov     cx,[bx+0Ah]
ff98c: e3 aa                 jcxz    0FF938h
ff98e: 8c dd                 mov     bp,ds
ff990: 8b 77 08              mov     si,[bx+8h]
ff993: 8b 47 0c              mov     ax,[bx+0Ch]
ff996: f6 e1                 mul     cl
ff998: c4 7f 04              les     di,[bx+4h]
ff99b: 03 f8                 add     di,ax
ff99d: 8b d0                 mov     dx,ax
ff99f: 8a 07                 mov     al,[bx]
ff9a1: a8 02                 test    al,2h
ff9a3: 74 02                 je      0FF9A7h
ff9a5: 03 fa                 add     di,dx
ff9a7: a8 10                 test    al,10h
ff9a9: 75 07                 jne     0FF9B2h
ff9ab: 8e c5                 mov     es,bp
ff9ad: 8e 5f 06              mov     ds,[bx+6h]
ff9b0: 87 fe                 xchg    di,si
ff9b2: fc                    cld     
ff9b3: a8 01                 test    al,1h
ff9b5: 74 01                 je      0FF9B8h
ff9b7: fd                    std     
ff9b8: a8 02                 test    al,2h
ff9ba: 74 22                 je      0FF9DEh
ff9bc: a8 04                 test    al,4h
ff9be: 75 0d                 jne     0FF9CDh
ff9c0: a8 08                 test    al,8h
ff9c2: 74 01                 je      0FF9C5h
ff9c4: f0                    lock    
ff9c5: a5                    movsw   
ff9c6: e2 f8                 loop    0FF9C0h
ff9c8: 8e dd                 mov     ds,bp
ff9ca: e9 6b ff              jmp     0FF938h
ff9cd: a8 08                 test    al,8h
ff9cf: 75 06                 jne     0FF9D7h
ff9d1: e3 f5                 jcxz    0FF9C8h
ff9d3: f3 a5                 rep     movsw   
ff9d5: eb fa                 jmp     0FF9D1h
ff9d7: e3 ef                 jcxz    0FF9C8h
ff9d9: f3 f0                 rep     lock    
ff9db: a5                    movsw   
ff9dc: eb f9                 jmp     0FF9D7h
ff9de: a8 04                 test    al,4h
ff9e0: 75 0a                 jne     0FF9ECh
ff9e2: a8 08                 test    al,8h
ff9e4: 74 01                 je      0FF9E7h
ff9e6: f0                    lock    
ff9e7: a4                    movsb   
ff9e8: e2 f8                 loop    0FF9E2h
ff9ea: eb dc                 jmp     0FF9C8h
ff9ec: a8 08                 test    al,8h
ff9ee: 75 06                 jne     0FF9F6h
ff9f0: e3 d6                 jcxz    0FF9C8h
ff9f2: f3 a4                 rep     movsb   
ff9f4: eb fa                 jmp     0FF9F0h
ff9f6: e3 d0                 jcxz    0FF9C8h
ff9f8: f3 f0                 rep     lock    
ff9fa: a4                    movsb   
ff9fb: eb f9                 jmp     0FF9F6h
ff9fd: 8e 57 0a              mov     ss,[bx+0Ah]
ffa00: 8b 67 08              mov     sp,[bx+8h]
ffa03: f6 07 01              test    byte ptr [bx],1h
ffa06: 75 04                 jne     0FFA0Ch
ffa08: c5 6f 0c              lds     bp,[bx+0Ch]
ffa0b: cf                    iret    
ffa0c: 80 27 fe              and     byte ptr [bx],0FEh
ffa0f: ff 6f 04              jmp     far ptr  [bx+4h]
ffa12: 35 8c da              xor     ax,0DA8Ch
ffa15: 8c c9                 mov     cx,cs
ffa17: 8e d9                 mov     ds,cx
ffa19: 8b 1e 02 46           mov     bx,[4602h]
ffa1d: 89 67 08              mov     [bx+8h],sp
ffa20: 8c 57 0a              mov     [bx+0Ah],ss
ffa23: 89 6f 0c              mov     [bx+0Ch],bp
ffa26: 89 57 0e              mov     [bx+0Eh],dx
ffa29: 8e d1                 mov     ss,cx
ffa2b: bc 00 48              mov     sp,4800h
ffa2e: e9 07 ff              jmp     0FF938h
ffa31: ff 5f 04              call    far ptr  [bx+4h]
ffa34: 8b 1e 02 46           mov     bx,[4602h]
ffa38: e9 fd fe              jmp     0FF938h
ffa3b: 33 f6                 xor     si,si
ffa3d: 8c da                 mov     dx,ds
ffa3f: 8e c6                 mov     es,si
ffa41: 8e de                 mov     ds,si
ffa43: bf 04 00              mov     di,4h
ffa46: c7 04 c5 bc           mov     word ptr [si],0BCC5h
ffa4a: 8c 4c 02              mov     [si+2h],cs
ffa4d: b9 fe 01              mov     cx,1FEh
ffa50: fc                    cld     
ffa51: f3 a5                 rep     movsw   
ffa53: c7 06 00 00 cb bc     mov     word ptr [0h],0BCCBh
ffa59: c7 06 04 00 d1 bc     mov     word ptr [4h],0BCD1h
ffa5f: c7 06 08 00 d7 bc     mov     word ptr [8h],0BCD7h
ffa65: c7 06 0c 00 dd bc     mov     word ptr [0Ch],0BCDDh
ffa6b: c7 06 10 00 e3 bc     mov     word ptr [10h],0BCE3h
ffa71: c7 06 f4 03 13 ba     mov     word ptr [3F4h],0BA13h
ffa77: c7 06 f8 03 e9 bc     mov     word ptr [3F8h],0BCE9h
ffa7d: c7 06 fc 03 ef bc     mov     word ptr [3FCh],0BCEFh
ffa83: 39 16 fe 03           cmp     [3FEh],dx
ffa87: 74 04                 je      0FFA8Dh
ffa89: fe 06 07 00           inc     byte ptr [7h]
ffa8d: b8 ff ff              mov     ax,0FFFFh
ffa90: 40                    inc     ax
ffa91: 8e d8                 mov     ds,ax
ffa93: 8b 0e 00 00           mov     cx,[0h]
ffa97: f7 16 00 00           not     word ptr [0h]
ffa9b: 8b 3e 00 00           mov     di,[0h]
ffa9f: 89 0e 00 00           mov     [0h],cx
ffaa3: f7 d1                 not     cx
ffaa5: 3b cf                 cmp     cx,di
ffaa7: 74 e7                 je      0FFA90h
ffaa9: 8e da                 mov     ds,dx
ffaab: 89 47 04              mov     [bx+4h],ax
ffaae: 3d 00 20              cmp     ax,2000h
ffab1: 74 09                 je      0FFABCh
ffab3: 72 0a                 jb      0FFABFh
ffab5: 3d 00 40              cmp     ax,4000h
ffab8: 74 02                 je      0FFABCh
ffaba: 72 03                 jb      0FFABFh
ffabc: e9 79 fe              jmp     0FF938h
ffabf: fe 47 06              inc     byte ptr [bx+6h]
ffac2: eb f8                 jmp     0FFABCh
ffac4: ba 38 b9              mov     dx,0B938h
ffac7: 8b 4f 04              mov     cx,[bx+4h]
ffaca: 0b c9                 or      cx,cx
ffacc: 74 15                 je      0FFAE3h
fface: 8b 47 06              mov     ax,[bx+6h]
ffad1: 0b c0                 or      ax,ax
ffad3: 75 02                 jne     0FFAD7h
ffad5: 8b c1                 mov     ax,cx
ffad7: 33 c9                 xor     cx,cx
ffad9: 41                    inc     cx
ffada: d1 d0                 rcl     ax,1
ffadc: 73 fb                 jae     0FFAD9h
ffade: d3 e8                 shr     ax,cl
ffae0: 89 47 06              mov     [bx+6h],ax
ffae3: 8b e9                 mov     bp,cx
ffae5: 8b f2                 mov     si,dx
ffae7: bf 0c 00              mov     di,0Ch
ffaea: ba ef ba              mov     dx,0BAEFh
ffaed: eb 41                 jmp     0FFB30h
ffaef: bf 07 00              mov     di,7h
ffaf2: ba f7 ba              mov     dx,0BAF7h
ffaf5: eb 24                 jmp     0FFB1Bh
ffaf7: 8b cd                 mov     cx,bp
ffaf9: e3 16                 jcxz    0FFB11h
ffafb: 8b e9                 mov     bp,cx
ffafd: bf 04 00              mov     di,4h
ffb00: ba 05 bb              mov     dx,0BB05h
ffb03: eb 2b                 jmp     0FFB30h
ffb05: bf 05 00              mov     di,5h
ffb08: ba 0d bb              mov     dx,0BB0Dh
ffb0b: eb 0e                 jmp     0FFB1Bh
ffb0d: 8b cd                 mov     cx,bp
ffb0f: e2 ea                 loop    0FFAFBh
ffb11: bf 07 00              mov     di,7h
ffb14: ba 19 bb              mov     dx,0BB19h
ffb17: eb 02                 jmp     0FFB1Bh
ffb19: ff e6                 jmp     si
ffb1b: b9 00 04              mov     cx,400h
ffb1e: b8 01 00              mov     ax,1h
ffb21: f6 f0                 div     al
ffb23: f6 f0                 div     al
ffb25: f6 f0                 div     al
ffb27: f6 f0                 div     al
ffb29: e2 f6                 loop    0FFB21h
ffb2b: 4f                    dec     di
ffb2c: 79 ed                 jns     0FFB1Bh
ffb2e: ff e2                 jmp     dx
ffb30: b9 00 18              mov     cx,1800h
ffb33: e4 ff                 in      al,0FFh
ffb35: e2 fc                 loop    0FFB33h
ffb37: 4f                    dec     di
ffb38: 79 f6                 jns     0FFB30h
ffb3a: ff e2                 jmp     dx
ffb3c: e9 f9 fd              jmp     0FF938h
ffb3f: fa                    cli     
ffb40: 2e c7 06 1e 46 01 00  mov     word ptr cs:[461Eh],1h
ffb47: 2e a3 e0 47           mov     cs:[47E0h],ax
ffb4b: 8c c8                 mov     ax,cs
ffb4d: 3d 00 f4              cmp     ax,0F400h
ffb50: 75 fe                 jne     0FFB50h
ffb52: 2e 8c 1e f0 47        mov     cs:[47F0h],ds
ffb57: 8e d8                 mov     ds,ax
ffb59: 8c 06 f4 47           mov     [47F4h],es
ffb5d: 8c 16 f2 47           mov     [47F2h],ss
ffb61: 89 26 e8 47           mov     [47E8h],sp
ffb65: 89 3e ee 47           mov     [47EEh],di
ffb69: 89 36 ec 47           mov     [47ECh],si
ffb6d: 89 2e ea 47           mov     [47EAh],bp
ffb71: 89 16 e6 47           mov     [47E6h],dx
ffb75: 89 0e e4 47           mov     [47E4h],cx
ffb79: 89 1e e2 47           mov     [47E2h],bx
ffb7d: 81 3e fc bf 09 09     cmp     word ptr [0BFFCh],909h
ffb83: 75 fe                 jne     0FFB83h
ffb85: c7 06 1e 46 02 00     mov     word ptr [461Eh],2h
ffb8b: b8 55 55              mov     ax,5555h
ffb8e: 8b d8                 mov     bx,ax
ffb90: 8b c8                 mov     cx,ax
ffb92: 8b d0                 mov     dx,ax
ffb94: 8b e0                 mov     sp,ax
ffb96: 8b e8                 mov     bp,ax
ffb98: 8b f0                 mov     si,ax
ffb9a: 8b f8                 mov     di,ax
ffb9c: 2b d0                 sub     dx,ax
ffb9e: f7 fb                 idiv    bx
ffba0: 48                    dec     ax
ffba1: 75 54                 jne     0FFBF7h
ffba3: c7 06 1e 46 03 00     mov     word ptr [461Eh],3h
ffba9: 0b c2                 or      ax,dx
ffbab: 75 4a                 jne     0FFBF7h
ffbad: c7 06 1e 46 04 00     mov     word ptr [461Eh],4h
ffbb3: 8b cb                 mov     cx,bx
ffbb5: 8b d1                 mov     dx,cx
ffbb7: 8b e2                 mov     sp,dx
ffbb9: 8b ec                 mov     bp,sp
ffbbb: 8b f5                 mov     si,bp
ffbbd: 8b fe                 mov     di,si
ffbbf: 81 ff 55 55           cmp     di,5555h
ffbc3: 75 32                 jne     0FFBF7h
ffbc5: c7 06 1e 46 05 00     mov     word ptr [461Eh],5h
ffbcb: 33 fe                 xor     di,si
ffbcd: 75 28                 jne     0FFBF7h
ffbcf: c7 06 1e 46 06 00     mov     word ptr [461Eh],6h
ffbd5: 2b f7                 sub     si,di
ffbd7: 72 1e                 jb      0FFBF7h
ffbd9: c7 06 1e 46 07 00     mov     word ptr [461Eh],7h
ffbdf: 23 ce                 and     cx,si
ffbe1: 8d 98 ab aa           lea     bx,[bx+si-5555h]
ffbe5: d1 c3                 rol     bx,1
ffbe7: 85 d9                 test    cx,bx
ffbe9: 75 0c                 jne     0FFBF7h
ffbeb: c7 06 1e 46 07 00     mov     word ptr [461Eh],7h
ffbf1: 81 fb aa aa           cmp     bx,0AAAAh
ffbf5: 74 34                 je      0FFC2Bh
ffbf7: f0                    lock    
ffbf8: fe 06 1f 46           inc     byte ptr [461Fh]
ffbfc: 8b 1e 1e 46           mov     bx,[461Eh]
ffc00: 02 db                 add     bl,bl
ffc02: 8b d3                 mov     dx,bx
ffc04: 81 e3 1e 00           and     bx,1Eh
ffc08: 2e 8b b7 31 bd        mov     si,cs:[bx-42CFh]
ffc0d: bf d0 47              mov     di,47D0h
ffc10: 8c c8                 mov     ax,cs
ffc12: 8e c0                 mov     es,ax
ffc14: 8e d8                 mov     ds,ax
ffc16: b9 10 00              mov     cx,10h
ffc19: f0                    lock    
ffc1a: f3 a4                 rep     movsb   
ffc1c: 80 ce fc              or      dh,0FCh
ffc1f: ed                    in      ax,dx
ffc20: ed                    in      ax,dx
ffc21: ed                    in      ax,dx
ffc22: ed                    in      ax,dx
ffc23: ed                    in      ax,dx
ffc24: ed                    in      ax,dx
ffc25: ed                    in      ax,dx
ffc26: ed                    in      ax,dx
ffc27: e2 f6                 loop    0FFC1Fh
ffc29: eb cc                 jmp     0FFBF7h
ffc2b: c7 06 1e 46 08 00     mov     word ptr [461Eh],8h
ffc31: be 00 b8              mov     si,0B800h
ffc34: b9 ff ff              mov     cx,0FFFFh
ffc37: bf fe 07              mov     di,7FEh
ffc3a: bd 40 bc              mov     bp,0BC40h
ffc3d: e9 b5 00              jmp     0FFCF5h
ffc40: 74 15                 je      0FFC57h
ffc42: f7 04 ff ff           test    word ptr [si],0FFFFh
ffc46: 75 af                 jne     0FFBF7h
ffc48: 8b c1                 mov     ax,cx
ffc4a: 88 04                 mov     [si],al
ffc4c: 33 c9                 xor     cx,cx
ffc4e: e2 fe                 loop    0FFC4Eh
ffc50: 88 64 01              mov     [si+1h],ah
ffc53: e2 fe                 loop    0FFC53h
ffc55: eb d4                 jmp     0FFC2Bh
ffc57: c7 06 1e 46 09 00     mov     word ptr [461Eh],9h
ffc5d: be a0 46              mov     si,46A0h
ffc60: b9 ff ff              mov     cx,0FFFFh
ffc63: bf 2a 01              mov     di,12Ah
ffc66: bd 6c bc              mov     bp,0BC6Ch
ffc69: e9 89 00              jmp     0FFCF5h
ffc6c: 75 07                 jne     0FFC75h
ffc6e: 8b 1e 02 46           mov     bx,[4602h]
ffc72: e9 c3 fc              jmp     0FF938h
ffc75: c7 06 1e 46 0a 00     mov     word ptr [461Eh],0Ah
ffc7b: 8c d8                 mov     ax,ds
ffc7d: 8e c0                 mov     es,ax
ffc7f: be 00 46              mov     si,4600h
ffc82: c7 04 00 00           mov     word ptr [si],0h
ffc86: bf 02 46              mov     di,4602h
ffc89: b9 4f 00              mov     cx,4Fh
ffc8c: f3 a5                 rep     movsw   
ffc8e: f7 04 ff ff           test    word ptr [si],0FFFFh
ffc92: 75 b2                 jne     0FFC46h
ffc94: c7 06 1e 46 0b 00     mov     word ptr [461Eh],0Bh
ffc9a: be 00 b8              mov     si,0B800h
ffc9d: bf a0 46              mov     di,46A0h
ffca0: b9 95 00              mov     cx,95h
ffca3: f3 a5                 rep     movsw   
ffca5: be 00 b8              mov     si,0B800h
ffca8: bf a0 46              mov     di,46A0h
ffcab: b9 2a 01              mov     cx,12Ah
ffcae: f3 a6                 rep     cmpsb   
ffcb0: 75 94                 jne     0FFC46h
ffcb2: 8c cc                 mov     sp,cs
ffcb4: 8e d4                 mov     ss,sp
ffcb6: bc 00 48              mov     sp,4800h
ffcb9: b8 c0 46              mov     ax,46C0h
ffcbc: c7 06 1e 46 ff ff     mov     word ptr [461Eh],0FFFFh
ffcc2: e9 84 fc              jmp     0FF949h
ffcc5: 2e ff 06 14 46        inc     word ptr cs:[4614h]
ffcca: cf                    iret    
ffccb: 2e ff 06 06 46        inc     word ptr cs:[4606h]
ffcd0: cf                    iret    
ffcd1: 2e ff 06 08 46        inc     word ptr cs:[4608h]
ffcd6: cf                    iret    
ffcd7: 2e ff 06 0a 46        inc     word ptr cs:[460Ah]
ffcdc: cf                    iret    
ffcdd: 2e ff 06 0c 46        inc     word ptr cs:[460Ch]
ffce2: cf                    iret    
ffce3: 2e ff 06 0e 46        inc     word ptr cs:[460Eh]
ffce8: cf                    iret    
ffce9: 2e ff 06 10 46        inc     word ptr cs:[4610h]
ffcee: cf                    iret    
ffcef: 2e ff 06 12 46        inc     word ptr cs:[4612h]
ffcf4: cf                    iret    
ffcf5: 8a 04                 mov     al,[si]
ffcf7: 46                    inc     si
ffcf8: 32 c1                 xor     al,cl
ffcfa: 8a f0                 mov     dh,al
ffcfc: d0 c8                 ror     al,1
ffcfe: d0 c8                 ror     al,1
ffd00: d0 c8                 ror     al,1
ffd02: d0 c8                 ror     al,1
ffd04: 24 0f                 and     al,0Fh
ffd06: 32 c6                 xor     al,dh
ffd08: 8a d0                 mov     dl,al
ffd0a: d0 c8                 ror     al,1
ffd0c: d0 c8                 ror     al,1
ffd0e: d0 c8                 ror     al,1
ffd10: 8a f0                 mov     dh,al
ffd12: 24 1f                 and     al,1Fh
ffd14: 32 c5                 xor     al,ch
ffd16: 8a c8                 mov     cl,al
ffd18: 8a c6                 mov     al,dh
ffd1a: 24 e0                 and     al,0E0h
ffd1c: 32 c2                 xor     al,dl
ffd1e: 8a e8                 mov     ch,al
ffd20: 8a c6                 mov     al,dh
ffd22: d0 c8                 ror     al,1
ffd24: 24 f0                 and     al,0F0h
ffd26: 32 c1                 xor     al,cl
ffd28: 8a c8                 mov     cl,al
ffd2a: 4f                    dec     di
ffd2b: 75 c8                 jne     0FFCF5h
ffd2d: 3b 0c                 cmp     cx,[si]
ffd2f: ff e5                 jmp     bp
ffd31: 51                    push    cx
ffd32: bd 61 bd              mov     bp,0BD61h
ffd35: 71 bd                 jno     0FFCF4h
ffd37: 81 bd 91 bd a1 bd     cmp     word ptr [di-426Fh],0BDA1h
ffd3d: b1 bd                 mov     cl,0BDh
ffd3f: c1 bd d1 bd e1        sar     word ptr [di-422Fh],0E1h
ffd44: bd f1 bd              mov     bp,0BDF1h
ffd47: 01 be 11 be           add     [bp-41EFh],di
ffd4b: 21 be 31 be           and     [bp-41CFh],di
ffd4f: 41                    inc     cx
ffd50: be 30 31              mov     si,3130h
ffd53: 32 33                 xor     dh,[bp+di]
ffd55: 34 35                 xor     al,35h
ffd57: 36 37                 aaa     
ffd59: 38 39                 cmp     [bx+di],bh
ffd5b: 61                    popa    
ffd5c: 62 63 64              bound   sp,[bp+di+64h]
ffd5f: 65 66 42              inc     edx
ffd62: 61                    popa    
ffd63: 64 20 43 53           and     fs:[bp+di+53h],al
ffd67: 3a 20                 cmp     ah,[bx+si]
ffd69: 52                    push    dx
ffd6a: 65 67 69 73 74 65 72  imul    si,gs:[ebx+74h],7265h
ffd71: 42                    inc     dx
ffd72: 61                    popa    
ffd73: 64 20 43 50           and     fs:[bp+di+50h],al
ffd77: 55                    push    bp
ffd78: 20 52 65              and     [bp+si+65h],dl
ffd7b: 67 69 73 74 65 72     imul    si,[ebx+74h],7265h
ffd81: 44                    inc     sp
ffd82: 69 76 69 73 69        imul    si,[bp+69h],6973h
ffd87: 6f                    outsw   
ffd88: 6e                    outsb   
ffd89: 20 46 61              and     [bp+61h],al
ffd8c: 69 6c 75 72 65        imul    bp,[si+75h],6572h
ffd91: 41                    inc     cx
ffd92: 4c                    dec     sp
ffd93: 55                    push    bp
ffd94: 2f                    das     
ffd95: 52                    push    dx
ffd96: 45                    inc     bp
ffd97: 47                    inc     di
ffd98: 20 20                 and     [bx+si],ah
ffd9a: 46                    inc     si
ffd9b: 61                    popa    
ffd9c: 69 6c 75 72 65        imul    bp,[si+75h],6572h
ffda1: 41                    inc     cx
ffda2: 4c                    dec     sp
ffda3: 55                    push    bp
ffda4: 2f                    das     
ffda5: 58                    pop     ax
ffda6: 4f                    dec     di
ffda7: 52                    push    dx
ffda8: 20 20                 and     [bx+si],ah
ffdaa: 46                    inc     si
ffdab: 61                    popa    
ffdac: 69 6c 75 72 65        imul    bp,[si+75h],6572h
ffdb1: 41                    inc     cx
ffdb2: 4c                    dec     sp
ffdb3: 55                    push    bp
ffdb4: 2f                    das     
ffdb5: 53                    push    bx
ffdb6: 55                    push    bp
ffdb7: 42                    inc     dx
ffdb8: 20 20                 and     [bx+si],ah
ffdba: 46                    inc     si
ffdbb: 61                    popa    
ffdbc: 69 6c 75 72 65        imul    bp,[si+75h],6572h
ffdc1: 41                    inc     cx
ffdc2: 4c                    dec     sp
ffdc3: 55                    push    bp
ffdc4: 2f                    das     
ffdc5: 43                    inc     bx
ffdc6: 50                    push    ax
ffdc7: 55                    push    bp
ffdc8: 20 20                 and     [bx+si],ah
ffdca: 46                    inc     si
ffdcb: 61                    popa    
ffdcc: 69 6c 75 72 65        imul    bp,[si+75h],6572h
ffdd1: 43                    inc     bx
ffdd2: 52                    push    dx
ffdd3: 43                    inc     bx
ffdd4: 2d 31 36              sub     ax,3631h
ffdd7: 20 49 6e              and     [bx+di+6Eh],cl
ffdda: 63 6f 72              arpl    [bx+72h],bp
ffddd: 72 65                 jb      0FFE44h
ffddf: 63 74 53              arpl    [si+53h],si
ffde2: 68 61 72              push    7261h
ffde5: 65 20 52 41           and     gs:[bp+si+41h],dl
ffde9: 4d                    dec     bp
ffdea: 20 46 61              and     [bp+61h],al
ffded: 69 6c 65 64 53        imul    bp,[si+65h],5364h
ffdf2: 68 61 72              push    7261h
ffdf5: 65 64 20 52 61        and     fs:[bp+si+61h],dl
ffdfa: 6d                    insw    
ffdfb: 20 49 6e              and     [bx+di+6Eh],cl
ffdfe: 69 74 2e 20 20        imul    si,[si+2Eh],2020h
ffe03: 20 20                 and     [bx+si],ah
ffe05: 20 20                 and     [bx+si],ah
ffe07: 20 20                 and     [bx+si],ah
ffe09: 20 20                 and     [bx+si],ah
ffe0b: 20 20                 and     [bx+si],ah
ffe0d: 20 20                 and     [bx+si],ah
ffe0f: 20 20                 and     [bx+si],ah
ffe11: 20 20                 and     [bx+si],ah
ffe13: 20 20                 and     [bx+si],ah
ffe15: 20 20                 and     [bx+si],ah
ffe17: 20 20                 and     [bx+si],ah
ffe19: 20 20                 and     [bx+si],ah
ffe1b: 20 20                 and     [bx+si],ah
ffe1d: 20 20                 and     [bx+si],ah
ffe1f: 20 20                 and     [bx+si],ah
ffe21: 20 20                 and     [bx+si],ah
ffe23: 20 20                 and     [bx+si],ah
ffe25: 20 20                 and     [bx+si],ah
ffe27: 20 20                 and     [bx+si],ah
ffe29: 20 20                 and     [bx+si],ah
ffe2b: 20 20                 and     [bx+si],ah
ffe2d: 20 20                 and     [bx+si],ah
ffe2f: 20 20                 and     [bx+si],ah
ffe31: 20 20                 and     [bx+si],ah
ffe33: 20 20                 and     [bx+si],ah
ffe35: 20 20                 and     [bx+si],ah
ffe37: 20 20                 and     [bx+si],ah
ffe39: 20 20                 and     [bx+si],ah
ffe3b: 20 20                 and     [bx+si],ah
ffe3d: 20 20                 and     [bx+si],ah
ffe3f: 20 20                 and     [bx+si],ah
ffe41: 58                    pop     ax
ffe42: 65 72 6f              jb      0FFEB4h
ffe45: 78 20                 js      0FFE67h
ffe47: 38 31                 cmp     [bx+di],dh
ffe49: 36 20 50 43           and     ss:[bx+si+43h],dl
ffe4d: 20 20                 and     [bx+si],ah
ffe4f: 4f                    dec     di
ffe50: 6b ff ff              imul    di,di,-1h
ffe53: ff ff                 ???     
ffe55: ff ff                 ???     
ffe57: ff ff                 ???     
ffe59: ff ff                 ???     
ffe5b: ff ff                 ???     
ffe5d: ff ff                 ???     
ffe5f: ff ff                 ???     
ffe61: ff ff                 ???     
ffe63: ff ff                 ???     
ffe65: ff ff                 ???     
ffe67: ff ff                 ???     
ffe69: ff ff                 ???     
ffe6b: ff ff                 ???     
ffe6d: ff ff                 ???     
ffe6f: ff ff                 ???     
ffe71: ff ff                 ???     
ffe73: ff ff                 ???     
ffe75: ff ff                 ???     
ffe77: ff ff                 ???     
ffe79: ff ff                 ???     
ffe7b: ff ff                 ???     
ffe7d: ff ff                 ???     
ffe7f: ff ff                 ???     
ffe81: ff ff                 ???     
ffe83: ff ff                 ???     
ffe85: ff ff                 ???     
ffe87: ff ff                 ???     
ffe89: ff ff                 ???     
ffe8b: ff ff                 ???     
ffe8d: ff ff                 ???     
ffe8f: ff ff                 ???     
ffe91: ff ff                 ???     
ffe93: ff ff                 ???     
ffe95: ff ff                 ???     
ffe97: ff ff                 ???     
ffe99: ff ff                 ???     
ffe9b: ff ff                 ???     
ffe9d: ff ff                 ???     
ffe9f: ff ff                 ???     
ffea1: ff ff                 ???     
ffea3: ff ff                 ???     
ffea5: ff ff                 ???     
ffea7: ff ff                 ???     
ffea9: ff ff                 ???     
ffeab: ff ff                 ???     
ffead: ff ff                 ???     
ffeaf: ff ff                 ???     
ffeb1: ff ff                 ???     
ffeb3: ff ff                 ???     
ffeb5: ff ff                 ???     
ffeb7: ff ff                 ???     
ffeb9: ff ff                 ???     
ffebb: ff ff                 ???     
ffebd: ff ff                 ???     
ffebf: ff ff                 ???     
ffec1: ff ff                 ???     
ffec3: ff ff                 ???     
ffec5: ff ff                 ???     
ffec7: ff ff                 ???     
ffec9: ff ff                 ???     
ffecb: ff ff                 ???     
ffecd: ff ff                 ???     
ffecf: ff ff                 ???     
ffed1: ff ff                 ???     
ffed3: ff ff                 ???     
ffed5: ff ff                 ???     
ffed7: ff ff                 ???     
ffed9: ff ff                 ???     
ffedb: ff ff                 ???     
ffedd: ff ff                 ???     
ffedf: ff ff                 ???     
ffee1: ff ff                 ???     
ffee3: ff ff                 ???     
ffee5: ff ff                 ???     
ffee7: ff ff                 ???     
ffee9: ff ff                 ???     
ffeeb: ff ff                 ???     
ffeed: ff ff                 ???     
ffeef: ff ff                 ???     
ffef1: ff ff                 ???     
ffef3: ff ff                 ???     
ffef5: ff ff                 ???     
ffef7: ff ff                 ???     
ffef9: ff ff                 ???     
ffefb: ff ff                 ???     
ffefd: ff ff                 ???     
ffeff: ff ff                 ???     
fff01: ff ff                 ???     
fff03: ff ff                 ???     
fff05: ff ff                 ???     
fff07: ff ff                 ???     
fff09: ff ff                 ???     
fff0b: ff ff                 ???     
fff0d: ff ff                 ???     
fff0f: ff ff                 ???     
fff11: ff ff                 ???     
fff13: ff ff                 ???     
fff15: ff ff                 ???     
fff17: ff ff                 ???     
fff19: ff ff                 ???     
fff1b: ff ff                 ???     
fff1d: ff ff                 ???     
fff1f: ff ff                 ???     
fff21: ff ff                 ???     
fff23: ff ff                 ???     
fff25: ff ff                 ???     
fff27: ff ff                 ???     
fff29: ff ff                 ???     
fff2b: ff ff                 ???     
fff2d: ff ff                 ???     
fff2f: ff ff                 ???     
fff31: ff ff                 ???     
fff33: ff ff                 ???     
fff35: ff ff                 ???     
fff37: ff ff                 ???     
fff39: ff ff                 ???     
fff3b: ff ff                 ???     
fff3d: ff ff                 ???     
fff3f: ff ff                 ???     
fff41: ff ff                 ???     
fff43: ff ff                 ???     
fff45: ff ff                 ???     
fff47: ff ff                 ???     
fff49: ff ff                 ???     
fff4b: ff ff                 ???     
fff4d: ff ff                 ???     
fff4f: ff ff                 ???     
fff51: ff ff                 ???     
fff53: ff ff                 ???     
fff55: ff ff                 ???     
fff57: ff ff                 ???     
fff59: ff ff                 ???     
fff5b: ff ff                 ???     
fff5d: ff ff                 ???     
fff5f: ff ff                 ???     
fff61: ff ff                 ???     
fff63: ff ff                 ???     
fff65: ff ff                 ???     
fff67: ff ff                 ???     
fff69: ff ff                 ???     
fff6b: ff ff                 ???     
fff6d: ff ff                 ???     
fff6f: ff ff                 ???     
fff71: ff ff                 ???     
fff73: ff ff                 ???     
fff75: ff ff                 ???     
fff77: ff ff                 ???     
fff79: ff ff                 ???     
fff7b: ff ff                 ???     
fff7d: ff ff                 ???     
fff7f: ff ff                 ???     
fff81: ff ff                 ???     
fff83: ff ff                 ???     
fff85: ff ff                 ???     
fff87: ff ff                 ???     
fff89: ff ff                 ???     
fff8b: ff ff                 ???     
fff8d: ff ff                 ???     
fff8f: ff ff                 ???     
fff91: ff ff                 ???     
fff93: ff ff                 ???     
fff95: ff ff                 ???     
fff97: ff ff                 ???     
fff99: ff ff                 ???     
fff9b: ff ff                 ???     
fff9d: ff ff                 ???     
fff9f: ff ff                 ???     
fffa1: ff ff                 ???     
fffa3: ff ff                 ???     
fffa5: ff ff                 ???     
fffa7: ff ff                 ???     
fffa9: ff ff                 ???     
fffab: ff ff                 ???     
fffad: ff ff                 ???     
fffaf: ff ff                 ???     
fffb1: ff ff                 ???     
fffb3: ff ff                 ???     
fffb5: ff ff                 ???     
fffb7: ff ff                 ???     
fffb9: ff ff                 ???     
fffbb: ff ff                 ???     
fffbd: ff ff                 ???     
fffbf: ff ff                 ???     
fffc1: ff ff                 ???     
fffc3: ff ff                 ???     
fffc5: ff ff                 ???     
fffc7: ff ff                 ???     
fffc9: ff ff                 ???     
fffcb: ff ff                 ???     
fffcd: ff ff                 ???     
fffcf: ff ff                 ???     
fffd1: ff ff                 ???     
fffd3: ff ff                 ???     
fffd5: ff ff                 ???     
fffd7: ff ff                 ???     
fffd9: ff ff                 ???     
fffdb: ff ff                 ???     
fffdd: ff ff                 ???     
fffdf: ff ff                 ???     
fffe1: ff ff                 ???     
fffe3: ff ff                 ???     
fffe5: ff ff                 ???     
fffe7: ff ff                 ???     
fffe9: ff ff                 ???     
fffeb: ff ff                 ???     
fffed: ff ff                 ???     
fffef: ff ea                 jmp     far ptr  dx
ffff1: 3f                    aas     
ffff2: bb 00 f4              mov     bx,0F400h
ffff5: 01 02                 add     [bp+si],ax
ffff7: 03 04                 add     ax,[si]
ffff9: 05 06 07              add     ax,706h
ffffc: 09 09                 or      [bx+di],cx
ffffe: d7                    xlat    
fffff: 39 00                 cmp     [bx+si],ax
