Balcones Operating System for the XEROX 820-II	MACRO-80 3.44	09-Dec-81	PAGE	1


                                
                                	title	Balcones Operating System for the XEROX 820-II
                                	.z80
                                
                                ;;;	Balcones Operating System for XEROX 820-II.
                                ;
                                ;	Copyright 1982 (C) Balcones Computer Corporation
                                ;
                                ;			All rights reserved
                                ;
                                ;	Genesis:
                                ;
                                ;	In the beginning there was no order, only chaos.  Then came
                                ;	the Big Board.  This expanding cloud of hot gas contained the 
                                ;	fundamental matter necessary to produce	a Xerox copy of itself.
                                ;
                                
                                ;;	Version 0.00	March 2, 1982.  Robert Burns, Bcc.
                                ;
                                ;	The 820-2/4 monitor sources converted to M80 format.
                                ;
  0000                          rev	defl	000
                                
                                ;;	Version 0.01	March 3, 1982	Robert Burns, Bcc.
                                ;
                                ;	The code placement was reorganized to conserve valuable ram.
                                ;	In particular, the crt driver was reworked extensively.  It
                                ;	now executes directly out of the rom in the screen bank.
                                ;	There ain't no such thing as a free lunch.  (wait states)
                                ;	The G command scans arguments to HL, DE, BC for the callee.
                                ;	It also prints the A register and the HL registers on return.
                                ;	The Input and Output commands were repaired for scroll port.
                                ;	A debug loader is provided for check-out in banked ram.
                                ; 
  0001                          rev	defl	001
                                
                                ;;	Version 0.02	March 4, 1982.  Robert Burns, Bcc.
                                ;
                                ;	The crt driver will allow interrupts during screen processing.
                                ;	A fast crt driver was provided that does not save/restore the
                                ;	registers.  CP/M does not require this time consuming service.
                                ;	The upper 4k of ram is tested on reset.
                                ;
  0002                          rev	defl	002
                                
                                ;;	Version 0.03	March 5, 1982.	Robert Burns, Bcc.
                                ;
                                ;	Several Entry Point Vectors were installed to access a
                                ;	standard physical disk driver executrix.  They provide
                                ;	a complete, dynamic logical to physical device mapping.
                                ;	The 820 disk entry vectors  were replaced by an Emulator
                                ;	that interfaces to this logical to physical disk mapper.
                                ;	The standard CP/M deblocker also knows how to employ these
                                ;	drivers.  1k of code space was reserved within the Ram
                                ;	Resident Monitor for the actual physical drivers, which
                                ;	are assembled and linked independently.
Balcones Operating System for the XEROX 820-II	MACRO-80 3.44	09-Dec-81	PAGE	1-1


                                ;
  0003                          rev	defl	003
                                
                                ;;	Version 0.04	March 9, 1982.  Robert Burns, Bcc.
                                ;
                                ;	An escape table with insert line, delete line, and sundry
                                ;	attribute control functions was installed.  Change message text
                                ;	as specified by C. Key.  In and out commands accept 16 bit
                                ;	port addresses.  Command to select 7 or 8 bit data from keyboard.
                                ;
  0004                          rev	defl	004
                                
                                ;;	Version 0.05	March 10, 1982.  Robert Burns, Bcc.
                                ;
                                ;	Background screen print with Xon/Xoff protocol added.  Insert and
                                ;	delete character provided.  The configuration byte will provide the
                                ;	calling program with information about the attached peripherals
                                ;	and software flags indicating 7 or 8  bit keyboard data, etc.
                                ;	An Options statement was added that allows certain less important
                                ;	routines to not be included at assembly time, since Rom space
                                ;	is tight.  Provided a user accessible 1 second interrupt jump vector.
                                ;
  0005                          rev	defl	005
                                
                                ;;	Version 0.06	March 12, 1982.  Robert Burns, Bcc.
                                ;
                                ;	Corrected Disk Parameter Tables for variable rigid partitions.
                                ;	Made boot loader read into temporary buffer so big sectors
                                ;	Don't clobber the TPA.
                                ;
  0006                          rev	defl	006
                                
                                ;;	Version 0.07	March 13, 1982.  Robert Burns, Bcc.
                                ;
                                ;	Added high level language interface to Daytim, Getsel, and Getcon
                                ;	Centralized CRT ram turn on/off
                                ;
  0007                          rev	defl	007
                                
                                ;;	Version 0.08	March 13, 1982.  Robert Burns, Bcc.
                                ;
                                ;	Set escape table as an option, with all video control codes
                                ;	as control characters, except cursor positioning.  Set
                                ;	typewriter/terminal  mode as an option.  Corrected configuration
                                ;	check to disable drive select if WD 1797 disk board
                                ;	is installed.
                                ;
  0008                          rev	defl	008
                                
                                ;;	Version 0.09	March 14, 1982.  Robert Burns, Bcc.
                                ;
                                ;	Added configurable options: Xon/Xoff, hardware handshake,
                                ;	step rate for WD 1797.  Use keyboard data mask to mask
                                ;	video output data so that WordStar files display properly
                                ;	when typed, if keyboard passes only 7 bits.  Cursor modified.
                                ;	Added rigid disk boot from any partition.
Balcones Operating System for the XEROX 820-II	MACRO-80 3.44	09-Dec-81	PAGE	1-2


                                ;
  0009                          rev	defl	009
                                
                                ;;	Version 0.10	March 14, 1982.  Robert Burns, Bcc.
                                ;
                                ;	Burned first Rom
                                ;
  000A                          rev	defl	010
                                
                                ;;	Version 1.0x	March 18, 1982...
                                ;
                                ;	Boot command now automatically switches drive with A:
                                ;	Won't jump into an E5 sector
                                ;	enabled disk read/write commands
                                ;	dug gold mine in video driver
                                ;
  0065                          rev	defl	101
  0066                          rev	defl	102
  006E                          rev	defl	110		;ROM burned
  006F                          rev	defl	111		;new WD driver
  0070                          rev	defl	112		;baud rate command, II/IV
  0078                          rev	defl	120		;ROM Burned
  0079                          rev	defl	121		;line feed burys gold
  007A                          rev	defl	122		;made ldirs macro
  0082                          rev	defl	130		;new disk drivers
  0083                          rev	defl	131		;fixed single density selection
  008C                          rev	defl	140		;burned ROM
  0096                          rev	defl	150		;transient area code macros
  0097                          rev	defl	151		;transient commands
  00A0                          rev	defl	160		;Burned ROM with faith
  00A1                          rev	defl	161		;Faith didn't help
  00AA                          rev	defl	170		;comming down the wire
  00AB                          rev	defl	171		;reworked double sided code
  00AC                          rev	defl	172		;fixed sa1403 ds
  00AD                          rev	defl	173		;installed help text
  00AE                          rev	defl	174		;fixed 1797 ds
  00AF                          rev	defl	175		;rigid partitions
  00B0                          rev	defl	176		;write enabled floppy if rigid par bad
  00B1                          rev	defl	177		;crc, config, more gold for the Goose
  00B2                          rev	defl	178		;almost Final Rom Prior to QA Testing
  00B3                          rev	defl	179		;adjusted sio mask for S. T.
  00B4                          rev	defl	180		;this is the one that burned 'em up
  00B5                          rev	defl	181		;fix dd configure
  012C                          rev	defl	300		;This was IT
  00B6                          rev	defl	182
  00B7                          rev	defl	183		;parallel printer, copyright, iobyte
  00BE                          rev	defl	190		;disk drivers at same exec address
  012C                          rev	defl	300		;This is really it, Charlie
  012D                          rev	defl	301		;proof that there is always another change
  018F                          rev	defl	399		;SA1403D error recovery, AS31A rev 02
  018E                          rev	defl	398		;WD1797 density select error recovery
  018D                          rev	defl	397		;idle / soft error report
  018C                          rev	defl	396		;western digital cleanup, removed fill, ramt
  018B                          rev	defl	395		;eat keyboard error message
  018A                          rev	defl	394		;auto boot A:
  0189                          rev	defl	393		;fix auto boot
Balcones Operating System for the XEROX 820-II	MACRO-80 3.44	09-Dec-81	PAGE	1-3


  0188                          rev	defl	392		;no auto boot
  0187                          rev	defl	391		;fix SA select failure, WD ready time, 10 msec
  0186                          rev	defl	390		;fix SA floppy format code
  0190                          rev	defl	400		;handle dead dtc controller during density sel
  0191                          rev	defl	401		;corrected WD driver stack overflow
  0192                          rev	defl	402		; DTR settings restored to 820 mode
  0193                          rev	defl	403		;Disabled RTS on comm port
  0194                          rev     defl	404		;Sign-on message change
  01EA                          rev	defl	490		;5.25" disk driver loader
  01EB                          rev     defl    491             ;added power up diagnostics
  01F4                          rev	defl	500		;Expansion Box II
                                
                                	subttl	Symbol Definitions
                                	page	60
Balcones Operating System for the XEROX 820-II	MACRO-80 3.44	09-Dec-81	PAGE	1-4
Symbol Definitions

                                
  FFFF                          true	equ	-1
  0000                          false	equ	not true
                                
  55AA                          valnum	equ	55aah		;standard ROM validation #
  0021                          rgd5	equ	21h		;5.25" rigid disk
  0020                          flpy5	equ	20h		;5.25" floppy disk
  0024                          rgd5id	equ	24h		;5.25" rigid disk
  0014                          flpy5id	equ	14h		;5.25" floppy disk
  00C3                          xjump	equ	0c3h		;JP hex value
                                
  0000                          debug	equ	false		;assemble ram loader
  0000                          ldirsm	equ	false		;simulate ldir on screen accesses
                                
                                ;;	Absolute Memory Addresses.
                                ;
  0000                          rom	equ	01000h and debug;non resident code base
  1800                          romsiz	equ	01000h+((not debug) and 0800h)
  1800                          Rx1984	equ	01800h		;prescription for the future
  0800                          Lx1984	equ	00800h		;length of future
  0003                          iobyte	equ	00003h		;i/o byte
  0080                          bootld	equ	00080h		;boot loader address
  ED80                          bootbf	equ	0ed80h		;boot loader buffer
  FF00                          ram	equ	0ff00h		;system ram page address
  F000                          monitr	equ	0f000h		;resident monitor address
  3000                          crtmem	equ	03000h		;crt memory address
  3C00                          crtmax	equ	crtmem+24*128	;crt maximum address
  0030                          crtbas	equ	high crtmem	;starting page of display ram
  003C                          crttop	equ	high crtmax	;ending page of display ram
                                
                                ;;	I/O Port Addresses.
                                ;
  0000                          bauda	equ	00h		;channel a baud rate generator
  0004                          siodpa	equ	04h		;sio data port A (communications)
  0005                          siodpb	equ	05h		;sio data port B (printer)
  0006                          siocpa	equ	06h		;sio control/status port A
  0007                          siocpb	equ	07h		;sio control/status port B
  0008                          gpioda	equ	08h		;general purpose parallel i/o A data
  0009                          gpioca	equ	09h		;general purpose parallel i/o A control
  000A                          gpiodb	equ	0ah		;general purpose parallel i/o B data
  000B                          gpiocb	equ	0bh		;general purpose parallel i/o B control
  000C                          baudb	equ	0ch		;channel b baud rate generator
  0010                          wd1797	equ	10h		;western digital disk controller base
  0014                          scroll	equ	14h		;crt bottom line scroll register
  0018                          ctc	equ	18h		;quad counter/timer circuit
  0018                          ctc0    equ	18h		;ctc channel 0 (user)
  0019                          ctc1	equ	19h		;ctc channel 1 (msec, screen print)
  001A                          ctc2	equ	1ah		;ctc channel 2 (one second prescaler)
  001B                          ctc3	equ	1bh		;ctc channel 3 (one second)
  001C                          syspio	equ	1ch		;system pio data
  001D                          sysctl	equ	1dh		;system pio control
  001E                          kbddat	equ	1eh		;keyboard data
  001F                          kbdctl	equ	1fh		;keyboard control
  0028                          bellof	equ	28h		;turn bell off
  0029                          bellon	equ	29h		;turn bell on
Balcones Operating System for the XEROX 820-II	MACRO-80 3.44	09-Dec-81	PAGE	1-5
Symbol Definitions

  0030                          slsden	equ	30h		;select single density
  0031                          sldden	equ	31h		;select double density
  0034                          chrom1	equ	34h		;select ROM 1 character generator
  0035                          chrom2	equ	35h		;select ROM 2 character generator
  0036                          lowlite	equ	36h		;select low intensity attribute
  0068                          async	equ	68h		;set internal clocks for asynchronous sio A
  0069                          sync	equ	69h		;set external clocks for  synchronous sio A
  00A6                          expbx	equ    	0a6h		;expansion box disk driver
                                
                                ;;	Configuration Status Byte Bit Definitions.
                                ;
  0007                          c.keym	equ	7		;Keyboard upper bit is passed
                                ;
                                ;	bits 6,5 are for rigid disk configurations
                                ;
  0060                          c.rgd	equ	01100000b	;Configuration Mask for Rigid Disks
  0040                          c.sasi	equ	01000000b	;Configuration Mask for 8" 8 Mbyte Rigid Disk
                                				;Shugart SA-1403D Disk Controller present
                                				; (this is a mask value not a bit position)
  0020                          c.rgd5	equ	00100000b	;Configuration Mask for 5.25" 10 Mbyte Rigid Disk
  0004                          c.five	equ	4		;Five inch micro floppies
  0003                          c.lpkb	equ	3		;Low Profile Keyboard present
  0002                          c.eb2	equ	2		;Expansion Box II present
                                
                                ;;	Ascii.
                                ;
  0004                          eot	equ	04h		;ascii end of text
  000A                          lf	equ	0ah		;ascii line feed
  000D                          cr	equ	0dh		;ascii carriage return
  0011                          xon	equ	11h		;ascii Xon
  0013                          xoff	equ	13h		;ascii Xoff
  001B                          esc	equ	1bh		;ascii escape
  001A                          clrs	equ	1ah		;clear screen
                                
                                ;;	Special Key Constants.
                                ;
  001E                          Helpkey	equ	01eh
  009E                          Scrprt	equ	09eh		;Screen Print key CTRL <HELP>
  009B                          Abort	equ	09bh		;Automatic Abort  CTRL <ESC>
                                
                                ;;	Bell Constants.
                                ;
  0035                          bltim	equ	35h		;bell loop time
  0061                          blonc	equ	61h		;bell on   time
  0061                          blofc	equ	61h		;bell off  time
                                
                                ;;	Assembly Options.
                                ;
  8000                          o.resv	equ	1000000000000000b	;reserved
  4000                          o.auto	equ	0100000000000000b	;auto boot A:
  2000                          o.help	equ	0010000000000000b	;help command
  1000                          o.prot	equ	0001000000000000b	;printer protocol
  0800                          o.ddvr	equ	0000100000000000b	;disk drivers
  0400                          o.baud	equ	0000010000000000b	;baud rate set command
  0200                          o.inpc	equ	0000001000000000b	;in command
  0100                          o.outc	equ	0000000100000000b	;out command
Balcones Operating System for the XEROX 820-II	MACRO-80 3.44	09-Dec-81	PAGE	1-6
Symbol Definitions

  0080                          o.verf	equ	0000000010000000b	;verify memory block
  0040                          o.ramt	equ	0000000001000000b	;simple ram test
  0020                          o.disk	equ	0000000000100000b	;console disk read/write commands
  0010                          o.esct	equ	0000000000010000b	;escape command table
  0008                          o.type	equ	0000000000001000b	;typewriter mode
  0004                          o.fill	equ	0000000000000100b	;fill memory
  0002                          o.move	equ	0000000000000010b	;move memory
  0001                          o.term	equ	0000000000000001b	;terminal scroll driver
                                
  0000                          options	defl	debug    and not o.ddvr and not o.esct
  0000                          options	defl	options  and not o.disk and not o.resv
  0000                          options	defl	options  and not o.verf and not o.fill
  0000                          options	defl	options  and not o.ramt
                                
  BFFF                          options	defl	(not debug or o.esct) and not o.auto
  9FF6                          options defl    options  and not o.help and not o.type and not o.term
  9F34                          options	defl	options and not o.verf and not o.ramt and not o.move	;** 5.0
  9F3D                          options	defl	options or o.type or o.term				;** 5.0
                                
                                ;;	configuration sector offsets.
                                ;
  EE5F                          z.scra	equ	bootbf+255-32	;initial screen attribute
  EE60                          z.stpr	equ	z.scra+1	;floppy step rate
  EE62                          z.keym	equ	z.stpr+2	;keyboard mask
  EE63                          z.sioA	equ	z.keym+1	;sio A init
  EE6D                          z.sioB	equ	z.sioA+10	;sio B init
  EE77                          z.siom	equ	z.sioB+10	;clear to send low/high/ignore
  EE79                          z.siov	equ	z.siom+2	;data carrier detect low/high/ignore
  EE7B                          z.xonp	equ	z.siov+2	;Xon/Xoff protocal
  EE7D                          z.baua	equ	z.xonp+2	;comm channel baud rate
  EE7E                          z.baub	equ	z.baua+1	;printer baud rate
  EE7F                          z.iobt	equ	z.baub+1	;initial i/o byte
                                
                                ;;	parallel printer status bits.
                                ;
  0007                          p.ackn	equ	7		;acknowledge
  0006                          p.onln	equ	6		;on line
  0005                          p.rdyi	equ	5		;ready to input
  0004                          p.rdyo	equ	4		;ready to output
  0002                          p.strb	equ	2		;data stobe
  0000                          p.auto	equ	0		;auto LF enable
                                
                                	subttl	Code Generation Control Macros Definitions
                                	page
Balcones Operating System for the XEROX 820-II	MACRO-80 3.44	09-Dec-81	PAGE	1-7
Code Generation Control Macros Definitions

                                
                                ;;	Rom code placement macros.
                                ;
                                ;;	The Common Segment holds the non-resident (banked) portion
                                ;	of the monitor.  This segment is not copied to ram.
                                ;
                                ;;	The Data Segment holds the resident portion of the monitor.
                                ;	It is moved to ram at location MONITR during initialization.
                                ;
                                ;;	The Code Segment holds the various Transient Commands.  Each
                                ;	command is loaded from the ROM to the TPA when it is executed.
                                ;
                                ;;	The following macros keep it all straight.
                                ;
                                ;;	below - Generate code for rom below.
                                ;
                                below	macro
                                	segment	b		;;enable common segment
                                	endm
                                
                                ;;	above - Generate code for ram above.
                                ;
                                above	macro
                                	segment	d		;;enable data segment
                                	endm
                                
                                ;;	Overlay - Generate code for transients.
                                ;
                                overlay	macro	addr
                                tloc	defl	tloc+$-cloc
                                addr	equ	tloc+bloc+cloc-Monitr
                                	segment	c		;;enable code segment
                                	endm
                                
                                ;;	bseg - activate common segment.
                                ;
                                bseg	macro
                                	common	/COMROM/
                                	defs	comres
                                sega	defl	$
                                	endm
                                
                                ;;	segment - Activate Segment.
                                ;
                                segment	macro	s
                                	update			;;update active phase counter
                                s&space	defl	-1		;;set enabled segment active        
                                	s&seg			;;activate segment code placement
                                	.phase	s&loc		;;set absolute segment location counter
                                	endm
                                
                                ;;	update - Update Phase Counters.
                                ;
                                update	macro
                                	if	bspace
Balcones Operating System for the XEROX 820-II	MACRO-80 3.44	09-Dec-81	PAGE	1-8
Code Generation Control Macros Definitions

                                comres	defl	$-rom+100h-3
                                	endif
                                	irpc	x,<bcd>
                                	if	x&space		;;if segment active
                                	if	cspace
                                	if	tpal lt ($-cloc)
                                tpal	defl	$-cloc		
                                	endif			
                                	else
                                x&loc	defl	$		;;save segment address
                                	endif
                                x&space	defl	0		;;clear segment active
                                	.dephase		;;revert to relocatable
                                	endif
                                	endm
                                	endm
                                
  0000                          bloc	defl	rom		;establish non-resident code base
  F000                          dloc	defl	monitr		;establish resident code base
  0000                          tloc	defl	0		;establise Transient code base
  0000                          tpal	defl	0		;establish maximum transient length
  0000                          bspace	defl	0		;preset common segment inactive
  0000                          cspace	defl	0		;preset code segment inactive
  0000                          dspace	defl	0		;preset data segment inactive
  0000                          comres	defl	0		;preset common base address
                                
                                ldirs	macro
                                	if	ldirsm
                                	call	simldir
                                	else
                                	ldir
                                	endif
                                	endm
                                
                                	subttl	Ram Loader for Testing Only
                                	page
Balcones Operating System for the XEROX 820-II	MACRO-80 3.44	09-Dec-81	PAGE	1-9
Ram Loader for Testing Only

                                
                                	bseg
  0000!                   +     	defs	comres
  0000!                         entry:
                                	if	debug
                                	jp	cpyout
                                	jp	xcks		;compute checksum
                                
                                cpyout:	di
                                	ld	hl,bbase	;move code out of resident memory
                                	ld	de,0c000h
                                	ld	bc,romsiz+movln
                                	ldir
                                	jp	0c000h
                                	else
  0000!   C3 0003!              	jp	xcks
                                	endif
                                
  0003!   21 00FD!              xcks:	ld	hl,bbase+movln
  0006!   01 17FF               	ld	bc,romsiz-1
  0009!   1E 00                 	ld	e,0		;preset checksum
  000B!   7E                    xcks1:	ld	a,(hl)
  000C!   23                    	inc	hl
  000D!   83                    	add	a,e
  000E!   5F                    	ld	e,a
  000F!   0B                    	dec	bc
  0010!   78                    	ld	a,b
  0011!   B1                    	or	c
  0012!   20 F7                 	jr	nz,xcks1
  0014!   7B                    	ld	a,e		;store twos complement of checksum
  0015!   ED 44                 	neg
  0017!   77                    	ld	(hl),a		;store checksum
  0018!   C3 0000               	jp	0
                                
                                	if	debug
                                	defs	80h-($-(entry-3)),-1
                                	endif
                                
                                
                                	subttl	System Initialization
                                	page
Balcones Operating System for the XEROX 820-II	MACRO-80 3.44	09-Dec-81	PAGE	1-10
System Initialization

                                
                                
  001B!                         bbase:				;symbol for accessing non-resident base address
                                	if	debug
                                	ld	hl,0c000h+movln	;move code into banked memory
                                	ld	de,prs		;set destination below
                                	ld	bc,romsiz	;move 4k
                                	in	a,(syspio)
                                	or	80h		;turn on rom/ram bank
                                	out	(syspio),a
                                	ldir
                                	jp	prs
                                	endif
                                
  001B!                         	defs	100h-($-(entry-3)),-1
                                
  00E2                          movln	equ	$-bbase
  00FD                          comres	defl	100h-3
                                
                                	below			;generate non-resident code
  0000!                   +     	defs	comres
                                
                                ;;	prs - preset storage.
                                ;
                                ;	Entry:	Power up or Reset button.
                                ;
  0000                          prs:
  0000    F3                    	di			;lock up system
  0001    AF                    	xor	a
  0002    3D                    prs1:	dec	a		;the pause that refershes
  0003    20 FD                 	jr	nz,prs1
  0005    ED 73 FFE0            	ld	(rstsp),sp	;save partial reset state
  0009    22 FFE2               	ld	(rsthl),hl	;in case the luser go boom
  000C    E1                    	pop	hl		;pick possible return off stack
  000D    22 FFE4               	ld	(rstpc),hl
  0010    D9                    	exx			;give primary registers half a break
  0011    1C                    	inc	e
  0012    31 3839               	ld	sp,3839h	;load strange values in SP
  0015    31 4142               	ld	sp,4142h
  0018    4C                    	ld	c,h		;insure
  0019    43                    	ld	b,e		;registers
  001A    4F                    	ld	c,a		;can
  001B    4E                    	ld	c,(hl)		;forget
  001C    45                    	ld	b,l		;insure
  001D    53                    	ld	d,e		;registers
  001E    43                    	ld	B,e		;can
  001F    4F                    	ld	C,a		;copy
  0020    4D                    	ld	C,l
  0021    50                    	ld	d,b
  0022    55                    	ld	d,l
  0023    54                    	ld	d,h
  0024    45                    	ld	b,l
  0025    52                    	ld	d,d
  0026    08                    	ex	af,af'
  0027    3E 17                 	ld	a,24-1		;line up bottom of screen
Balcones Operating System for the XEROX 820-II	MACRO-80 3.44	09-Dec-81	PAGE	1-11
System Initialization

  0029    D3 14                 	out	(scroll),a	;init scroll port
  002B    21 3000               	ld	hl,crtmem	;clear display memory
  002E    36 20                 	ld	(hl),' '
  0030    11 3001               	ld	de,crtmem+1
  0033    01 0BFF               	ld	bc,crtmax-crtmem-1
  0036    ED B0                 	ldir			;pray the video hardware works
  0038    31 F000               	ld	sp,monitr	;insure monitor ram ok
  003B    21 AA55               prs2:	ld	hl,0aa55h	;walk checker board through ram
  003E    C1                    	pop	bc		;read ram
  003F    E5                    	push	hl		;write ram fast
  0040    D1                    	pop	de		;read ram fast
  0041    C5                    	push	bc		;put ram back
  0042    F1                    	pop	af		;and verify it
  0043    90                    	sub	b
  0044    C2 0131               	jp  	nz,err1		;if ram failure
  0047    ED 52                 	sbc	hl,de
  0049    C2 0131               	jp	nz,err1		;if ram or register failure
  004C    3B                    	dec	sp		;advance test address
  004D    3F                    	ccf
  004E    ED 7A                 	adc	hl,sp
  0050    20 E9                 	jr	nz,prs2		;if top of memory not reached
  0052    31 0000               	ld	sp,stack	;set monitor stack
  0055    21 0000               	ld	hl,prs		;set rom address
  0058    01 1800               	ld	bc,romsiz
  005B    CD 0124               	call	ccs		;compute check sum
  005E    C2 0136               	jp	nz,err2		;if bad rom
  0061    21 015B               	ld	hl,intab	;point to default variable table
  0064    06 00                 prs3:	ld	b,0
  0066    4E                    	ld	c,(hl)		;set data block length
  0067    23                    	inc	hl
  0068    5E                    	ld	e,(hl)		;set variable address in ram
  0069    23                    	inc	hl
  006A    56                    	ld	d,(hl)
  006B    23                    	inc	hl		;point to initial values
  006C    ED B0                 	ldir			;copy data from rom to variables in ram
  006E    CB 7E                 	bit	7,(hl)
  0070    28 F2                 	jr	z,prs3		;if more data to preset
  0072    23                    	inc	hl		;point to i/o init data table
  0073    46                    prs4:	ld	b,(hl)		;set number of bytes to preset
  0074    23                    	inc	hl
  0075    4E                    	ld	c,(hl)		;set i/o port address
  0076    23                    	inc	hl
  0077    ED B3                 	otir			;shoot preset data to i/o device
  0079    CB 7E                 	bit	7,(hl)
  007B    28 F6                 	jr	z,prs4		;if more devices require initialization
  007D    DB 1E                 	in	a,(kbddat)	;assert PARDY
  007F    ED 5E                 	im	2		;select interrupt mode 2
  0081    3E FF                 	ld	a,high vectab	;set interrupt vector page
  0083    ED 47                 	ld	i,a
  0085    21 04CF               	ld	hl,rbase	;set resident base address
  0088    11 F000               	ld	de,monitr	;set monitor address
  008B    01 0F00               	ld	bc,ram-monitr	;set max resident length
  008E    ED B0                 	ldir			;plant monitor upstairs
                                ;
                                ; Load 5.25" disk driver
                                ;
Balcones Operating System for the XEROX 820-II	MACRO-80 3.44	09-Dec-81	PAGE	1-12
System Initialization

  0090    01 FFBF               ddskld:	ld	bc,0ffbfh	;verify validation #-let BC be ROM byte pointer
  0093    ED 78                 	in	a,(c)		;get msb of validation #
  0095    05                    	dec	b		;reset byte pointer
  0096    67                    	ld	h,a		;h <- msb of validation #
  0097    ED 78                 	in	a,(c)		;get lsb of validation #
  0099    05                    	dec	b		;reset byte pointer
  009A    6F                    	ld	l,a		;hl <- validation #
  009B    11 AA56               	ld	de,-valnum	;de <- negative of validation #
  009E    19                    	add	hl,de		;add ROM's val.# to neg. of standard val. #
  009F    7C                    	ld	a,h		;
  00A0    B5                    	or	l		;if invalid ROM validation # then
  00A1    C2 00FD                       jp      nz,lpkbd        ;   jump to low profile keyboard
  00A4    21 F091                       ld	hl,confg	;set configuration byte for 5.25"
  00A7    DB A6                 	in	a,(expbx)	;get id byte
  00A9    05                    	dec	b		;reset byte pointer
  00AA    FE 21                 	cp	rgd5   		;if 5.25 rigid configuration then
  00AC    CA 00B9               	jp	z,ddskid1	;   continue disk driver load
  00AF    FE 20                 	cp	flpy5   	;if not 5.25 floppy configuration then
  00B1    C2 0136               	jp	nz,err2		;   jump to error message
  00B4    3E 14                 	ld	a,flpy5id
  00B6    C3 00BB               	jp	ddskld1
  00B9    3E 24                 ddskid1:ld	a,rgd5id
  00BB    B6                    ddskld1:or	(hl)		;redefine configuration byte
  00BC    77                    	ld	(hl),a		;store configuration byte
  00BD    ED 50                 	in	d,(c)		;d <- msb of driver length
  00BF    05                    	dec	b		;reset byte pointer
  00C0    ED 58                 	in	e,(c)		;e <- lsb of driver length
  00C2    05                    	dec	b		;reset byte pointer
  00C3    ED 60                 	in      h,(c)   	;hl <- RAM address of disk driver
  00C5    05                    	dec	b		;reset byte pointer
  00C6    ED 68                 	in	l,(c)
  00C8    05                    	dec	b		;reset byte pointer
  00C9    E5                    	push    hl		;save RAM starting address
  00CA    19                    	add	hl,de		;hl <- RAM address of last byte of disk driver
  00CB    D5                    	push	de		;save driver length
  00CC    7A                    	ld	a,d		
  00CD    C6 B0                 	add	a,0b0h   	;set port for highest block of ROM
  00CF    4F                    	ld	c,a		;c <- port for highest block in ROM
  00D0    14                            inc     d               ;adjust block counter
  00D1    43                    	ld	b,e		;b <- byte count
  00D2    AF                            xor     a               ;clear a
  00D3    B8                    	cp	b		;if (b=0) then
  00D4    CA 00D9               	jp	z,ddskld3	;   jump to load last byte in block
                                				;Repeat
  00D7    ED BA                 ddskld2:indr			;   input 255 bytes
  00D9    ED AA                 ddskld3:ind			;   input last byte
  00DB    0D                    	dec	c		;   decrement block #
  00DC    15                    	dec	d		;   decrement block counter
  00DD    20 F8                 	jr	nz,ddskld2	;Until all blocks are loaded
  00DF    C1                    	pop	bc		;retrieve driver length
  00E0    E1                    	pop     hl   		;retrieve RAM starting address
  00E1    CD 0124               	call	ccs		;get checksum
  00E4    C2 0136               	jp	nz,err2		;if invalid checksum then ROM error
  00E7    01 F8BF                       ld      bc,0f8bfh       ;high byte of power up address
  00EA    ED 60                         in      h,(c)
  00EC    05                            dec     b
Balcones Operating System for the XEROX 820-II	MACRO-80 3.44	09-Dec-81	PAGE	1-13
System Initialization

  00ED    ED 68                         in      l,(c)           ;HL = address of disk drive diagnostic
  00EF    01 00F4                       ld      bc,tstret
  00F2    C5                            push    bc
  00F3    E9                            jp      (hl)
  00F4    C2 00FD               tstret: jp      nz,lpkbd          ;z set on disk error
  00F7    01 FFFF                       ld      bc,0ffffh       ;delay loop counbter
  00FA    C3 0141                       jp      err3
  00FD    21 1800               lpkbd:	ld	hl,Rx1984	;prognosticate
  0100    01 0800               	ld	bc,Lx1984
  0103    CD 0124               	call	ccs		;get checksum of low profile kbd rom
  0106    20 19                 	jr	nz,prs5		;if invalid checksum then jump to signon
  0108    2A 1FFD               	ld	hl,(Rx1984+Lx1984-3)
  010B    11 55AA               	ld	de,55aah
  010E    ED 52                 	sbc	hl,de		;else if invalid valid. # then jump to signon
  0110    20 0F                 	jr	nz,prs5
  0112    CD 0490               	call	lpkinf		;else get pointers to low profile keyboard
  0115    DD E5                 	push 	ix		;  interface
  0117    C5                    	push	bc
  0118    CD 0499               	call	moninf
  011B    E5                    	push	hl
  011C    D5                    	push	de
  011D    C5                    	push	bc
  011E    CD 1800               	call	Rx1984		;FutureShock
  0121    C3 FC52               prs5:	jp	signon		;Signon Resident Monitor
  0124    1E 00                 ccs:	ld	e,0		;preset ckecksum
  0126    7E                    ccs1:	ld	a,(hl)
  0127    23                    	inc	hl
  0128    83                    	add	a,e
  0129    5F                    	ld	e,a
  012A    0B                    	dec	bc
  012B    78                    	ld	a,b
  012C    B1                    	or	c
  012D    20 F7                 	jr	nz,ccs1
  012F    B3                    	or	e
  0130    C9                    	ret
                                
  0131    21 0149               err1:	ld	hl,errm1	;set ram error message
  0134    18 03                 	jr	err
  0136    21 0152               err2:	ld	hl,errm2
  0139    11 3024               err:	ld	de,crtmem+40-(errml/2)
  013C    01 0009               	ld	bc,errml
  013F    ED B0                 	ldir
  0141    0B                    err3:	dec	bc		;pause a while
  0142    78                    	ld	a,b
  0143    B1                    	or	c
  0144    20 FB                 	jr	nz,err3
  0146    C3 0000               	jp	prs	        ;try restart again
                                
  0149    52 61 6D 20           errm1:	db	'Ram Error'
  014D    45 72 72 6F           
  0151    72                    
  0152    52 6F 6D 20           errm2:	db	'Rom Error'
  0156    45 72 72 6F           
  015A    72                    
  0009                          errml	equ	($-errm1)/2
                                
Balcones Operating System for the XEROX 820-II	MACRO-80 3.44	09-Dec-81	PAGE	1-14
System Initialization

                                ;;	initialize the interrupt vector table
                                ;
  015B    02                    intab:	defb	2
  015C    FF1A                  	defw	sysvec+2
  015E    F140                  	defw	keysrv		;parallel keyboard interrupt vector
                                
  0160    06                    	defb	6
  0161    FF12                  	defw	ctcvec+2
  0163    F1FD                  	defw	milli		;one millisecond interrupt timer
  0165    0000                  	defw	0
  0167    F192                  	defw	timer		;one second timer interrupt vector
                                ;
                                ;	init keyboard fifo
                                ;
  0169    03                    	defb	3
  016A    FF30                  	defw	fifcnt
  016C    00                    	defb	0		;fifo count
  016D    00                    	defb	0		;fifo in
  016E    00                    	defb	0		;fifo out
                                ;
                                ;	initialize the crt display
                                ;
  016F    08                    	defb	8
  0170    FFAC                  	defw	cursor
  0172    3000                  	defw	crtmem		;base address is 3000h
  0174    02                    	defb	02 		;use non-blinking box cursor
  0175    3000                  	defw	crtmem		;direct crt memory output address
  0177    17                    	defb	23		;initial scroll base
  0178    00                    	defb	0		;initial leadin
  0179    00                    	defb	0		;initial attribute
                                ;
                                ;	Initialize configurable parameter addresses
                                ;
  017A    0C                    	defb	2*numcon
  017B    FFBF                  	defw	contbl		;configure table address
  017D    F10C                  cfinit:	defw	siomsk		;printer output ready mask
  017F    F10E                  	defw	sioval		;printer output ready value
  0181    F115                  	defw	xonenb		;Xon / Xoff enable/disable (NOP or RET)
  0183    FF54                   	defw	steprt		;step rate for wd1797
  0185    FFCB                  	defw	spare1
  0187    FFCC                  	defw	osboot
  0006                          numcon	equ	($-cfinit)/2
                                
  0189    04                    	defb	2*2
  018A    FF3C                  	defw	availb
  018C    F7FD                  	defw	iobloc+iobdvs
  018E    FC80                  	defw	ram-280h
                                
  0190    FF                    	defb	-1		;end of variable init table
                                
                                ;;	I/O port initialization.
                                ;
                                ;	initialize system pio for use as bank-switch,
                                ;	configuration select and parallel keyboard input
                                ;
                                
Balcones Operating System for the XEROX 820-II	MACRO-80 3.44	09-Dec-81	PAGE	1-15
System Initialization

  0191    01 1D                 	defb	1,sysctl
  0193    4F                    	defb	01001111b	;select input mode
                                
  0194    01 1C                 	defb	1,syspio
  0196    80                    	defb	10000000b	;enable ROM
                                
  0197    03 1D                 	defb	3,sysctl
  0199    CF                    	defb	11001111b	;put system pio in bit mode
  019A    3F                    	defb	00111111b	;make bits 5, 4, 3, 2, 1,  and 0 be inputs
  019B    07                    	defb	00000111b	;disable interrupts
                                
  019C    03 1F                 	defb	3,kbdctl
  019E    4F                    	defb	01001111b	;put keyboard port in input mode
  019F    1A                    	defb	sysvec+2	;load keyboard interrupt vector
  01A0    83                    	defb	10000011b	;enable interrupts
                                ;
                                ;	Initialize Counter Timer Circuit.
                                ;
  01A1    02 18                 	defb	2,ctc0
  01A3    03                    	defb	00000011b	;reset timer
  01A4    10                    	defb	low ctcvec	;base interrupt vector for ctc
                                
  01A5    02 19                 	defb	2,ctc1
  01A7    07                    	defb	00000111b	;start timer, but no interrupts
  01A8    FA                    	defb	250		;ctc1 period = 1 msec
                                
  01A9    02 1A                 	defb	2,ctc2
  01AB    27                    	defb	00100111b	;put ctc2 in timer / 256 mode (64 usec/count)
  01AC    7D                     	defb	125		;ctc2 period = 8 msec
                                
  01AD    02 1B                 	defb	2,ctc3
  01AF    C7                    	defb	11000111b	;put ctc3 in counter mode with interrupt
  01B0    7D                    	defb	125		;ctc3 period = 125*8 msec = 1 second
                                ;
                                ;	initialize sio channel b for asynchronous serial
                                ;	interface to printer or terminal
                                ;
  01B1    0A 07                 	defb	10,siocpb
  01B3    01                    	defb	1		;select register #1
  01B4    00                    	defb	00000000b	;disable interrupts
  01B5    02                    	defb	2		;select register #2
  01B6    00                    	defb	low siovec	;base sio interrupt vector
  01B7    03                    	defb	3		;select register #3
  01B8    41                    	defb	01000001b	;7 bits/rx characters
  01B9    04                    	defb	4		;select register #4
  01BA    47                    	defb	01000111b	;16x clock, 1 stop bit, even parity enabled
  01BB    05                    	defb	5		;select register #5
  01BC    AA                    	defb	10101010b	;DTR, 7 bits/tx character, Tx enb, RTS
                                
  01BD    01 0C                 	defb	1,baudb
  01BF    07                    	defb	0111b		;default clock is 1200 bps
                                
                                ;
                                ;	initialize communications port for async modem interface
                                ;
  01C0    08 06                 	defb	8,siocpa
Balcones Operating System for the XEROX 820-II	MACRO-80 3.44	09-Dec-81	PAGE	1-16
System Initialization

  01C2    01                    	defb	1		;select register #1
  01C3    00                    	defb	00000000b	;disable interrupts
  01C4    03                    	defb	3		;select register #3
  01C5    41                    	defb	01000001b	;7 bits/rx characters
  01C6    04                    	defb	4		;select register #4
  01C7    47                    	defb	01000111b	;16x clock, 1 stop bit, even parity enabled
                                ;rev 4.02 - DTR cleared
                                ;**	defb	5		;select register #5
                                ;**	defb	10101010b	;DTR, 7 bits/tx character, Tx enb, RTS
                                ;rev 4.03 - RTS cleared
                                ;**	defb	5		;select register #5
                                ;**	defb	00101010b	;no DTR, 7 bits/tx character, Tx enb, RTS
  01C8    05                    	defb	5		;select register #5
  01C9    28                    	defb	00101000b	;no DTR, 7bits/tx character,Tx enb,no RTS
                                
  01CA    01 00                 	defb	1,bauda
                                	if	debug
                                	defb	1110b		;debug clock is 9600 bps
                                	else
  01CC    05                    	defb	0101b		;default clock is 300 bps
                                	endif
                                
  01CD    01 68                 	defb	1,async		;set internal Rx+Tx clocks
  01CF    00                    	defb	0
                                ;
                                ;	initialize PIO for Centronics style printer
                                ;
  01D0    03 09                 	defb	3,gpioca
  01D2    CF                    	defb	11001111b	;mode 3
  01D3    00                    	defb	00000000b	;all output
  01D4    07                    	defb	00000111b	;no interrupts
                                
  01D5    03 0B                 	defb	3,gpiocb
  01D7    CF                    	defb	11001111b	;mode 3
  01D8    F0                    	defb	11110000b	;upper nibble in, lower out
  01D9    07                    	defb	00000111b	;no interrupts
                                
  01DA    01 0A                 	defb	1,gpiodb
  01DC    05                    	defb	(1 shl p.strb) or (1 shl p.auto)
  01DD    FF                    	defb	-1		;end of i/o init table
                                
                                	subttl	Resident Monitor Entry Points
                                	page
Balcones Operating System for the XEROX 820-II	MACRO-80 3.44	09-Dec-81	PAGE	1-17
Resident Monitor Entry Points

                                
                                ;;	Resident monitor entry points.
                                ;
                                ;	This Entry Point Vector provides the only reliable access
                                ;	to services provided by the Resident Monitor.  Any access
                                ;	to code in the Monitor or its Ram page past the keyboard
                                ;	variables is not allowed.  Future releases of the Resident
                                ;	Monitor will always provide compatability with these entry
                                ;	vectors.
                                ;
                                ;	This restriction also applies to the Resident Monitor Ram
                                ;	Page at the top of memory.  Access to Ram Variables must
                                ;	be obtained through the appropriate entry vector.
                                ;
                                	above
  02DB!                   +     	d&seg
                                
  F000    C3 F07C               cold:	jp	restart		;monitor restart
  F003    C3 FA62               warm:	jp	prompt		;monitor entry point
  F006    C3 F0CD               const:	jp	kbdst		;console status to A
  F009    C3 F0D8               conin:	jp	kbdin		;console input to A
  F00C    C3 F2F1               conout:	jp	crtout		;console output from A
  F00F    C3 F2FE               	jp	fastcrt		;fast crt output from C
  F012    C3 F0E5               	jp	siost		;sio channel b status to A
  F015    C3 F0F0               	jp	sioin		;sio channel b input to A
  F018    C3 F0F8               	jp	sioout		;sio channel b output from A
  F01B    C3 FA17               	jp	select		;select drive in C
  F01E    C3 FA3C               	jp	home		;home r/w head
  F021    C3 FA3E               	jp	seek		;seek to track in C
  F024    C3 FA48               	jp	read		;read sector  C -> buffer @ HL
  F027    C3 FA44               	jp	write		;write sector C <- buffer @ HL
  F02A    C3 F344               	jp	xqdvr		;execute physical driver request @ HL 
  F02D    C3 F284               	jp	setcur		;set direct crt cursor from HL
  F030    C3 F288               	jp	outcur		;direct crt display
  F033    C3 F2A3               	jp	crtldir		;crt memory block move ala` LDIR
  F036    C3 F097               	jp	getsel		;return address of disk mapping table to HL
  F039    C3 F086               	jp	daytim		;return address of Time-of-Day
  F03C    C3 F08B               	jp	config		;return configuration status
  F03F    C3 F105               	jp	siordy		;sio channel b output ready status
  F042    C3 F0A4               	jp	setcon		;set configuration
  F045    C3 F0BF               	jp	ssp		;start screen print
  F048    C3 F13F               usrsec:	jp	nulint		;user accessible 1 second interrupt
  F04B    C3 F7A3               	jp	iocons		;console status through iobyte
  F04E    C3 F7AF               	jp	ioconi		;console input  through iobyte
  F051    C3 F796               	jp	iocono		;console output through iobyte
  F054    C3 F7BB               	jp	iolist		;printer output through iobyte
  F057    C3 F7CC               	jp	iolsts		;printer status through iobyte
  F05A    C3 F770               	jp	comins		;communications input ready status
  F05D    C3 F775               	jp	cominp		;communications input data to A
  F060    C3 F77F               	jp	comout		;communications output data from C
  F063    C3 F788               	jp	comots		;communications output ready status
  F066    C3 F13F               idle:	jp	nulint		;idle while i/o is pending
  F069    C3 F0D2               	jp	soft		;record soft error
                                
  F06C                          lpk1:	defs	16,-1		;space for option rom linkage
Balcones Operating System for the XEROX 820-II	MACRO-80 3.44	09-Dec-81	PAGE	1-18
Resident Monitor Entry Points

                                
                                	subttl	Monitor Function Processors
                                	page
Balcones Operating System for the XEROX 820-II	MACRO-80 3.44	09-Dec-81	PAGE	1-19
Monitor Function Processors

                                
                                
                                ;;	Monitor Restart.
                                ;
  F07C    F3                    restart:di			;lock system
  F07D    DB 1C                 	in	a,(syspio)
  F07F    F6 80                 	or	1 shl 7		;enable banked rom
  F081    D3 1C                 	out	(syspio),a
  F083    C3 0000               	jp	prs		;reload monitor from rom or ram
                                
                                ;;	Daytim - Return Address of Time-of-Day.
                                ;
  F086    11 FF56               daytim:	ld	de,day		;point to day of month
  F089    18 0F                 	jr	retval
                                
                                ;;	Config - Return Configuration Status Byte.
                                ;
  F08B    3A F0E3               config:	ld	a,(mask)	;turn keyboard mask into c.keym
  F08E    E6 80                 	and	080h
  F090    F6 00                 	or	0
  F091                          confg	equ	$-1	;*****=>;This word stored by Preset
  F092    5F                    	ld	e,a
  F093    16 64                 	ld	d,rev-400	;return revision level
  F095    18 03                 	jr	retval
                                
                                ;;	getsel - Get address of Select table.
                                ;
  F097    11 F360               getsel:	ld	de,Seltab	;set select table address
                                
                                ;;	Retval - Return Value to Caller.
                                ;
  F09A    24                    retval:	inc	h		;see if high level language call
  F09B    25                    	dec	h
  F09C    28 03                 	jr	z,retv1		;if assembly level call
  F09E    73                    	ld	(hl),e		;store answer in variable
  F09F    23                    	inc	hl
  F0A0    72                    	ld	(hl),d
  F0A1    EB                    retv1:	ex	de,hl		;leave result in HL as well
  F0A2    FB                    eiret:	ei
  F0A3    C9                    	ret
                                
                                ;;	setcon - set configuration.
                                ;
  F0A4    7E                    setcon:	ld	a,(hl)		;get configuration table index
  F0A5    CB BF                 	res	7,a
  F0A7    FE 06                 	cp	numcon
  F0A9    D0                    	ret	nc		;if index out of range
  F0AA    5F                    	ld	e,a
  F0AB    7E                    	ld	a,(hl)		;get read/write flag
  F0AC    23                    	inc	hl
  F0AD    46                    	ld	b,(hl)		;get configuration data
  F0AE    16 00                 	ld	d,0
  F0B0    21 FFBF               	ld	hl,contbl	;set address of configuration table addresses
  F0B3    19                    	add	hl,de
  F0B4    19                    	add	hl,de
Balcones Operating System for the XEROX 820-II	MACRO-80 3.44	09-Dec-81	PAGE	1-20
Monitor Function Processors

  F0B5    5E                    	ld	e,(hl)		;get configurable byte address
  F0B6    23                    	inc	hl
  F0B7    56                    	ld	d,(hl)
  F0B8    EB                    	ex	de,hl
  F0B9    CB 7F                 	bit	7,a		;set direction
  F0BB    7E                    	ld	a,(hl)		;get previous value
  F0BC    C8                    	ret	z		;if asking current configuration
  F0BD    70                    	ld	(hl),b		;store new configuration
  F0BE    C9                    	ret
                                
                                ;;	ssp - start screen print.
                                ;
  F0BF    3E 67                 ssp:	ld	a,3+((24+1) shl 2)	;start with cr/lf
  F0C1    32 F20E               	ld	(spact),a
  F0C4    AF                    	xor	a
  F0C5    32 F224               	ld	(spcnt),a
  F0C8    3E 81                 	ld	a,81h		;start millisecond timer
  F0CA    D3 19                 	out	(ctc1),a
  F0CC    C9                    	ret
                                
                                 	subttl	Console / Printer Drivers
                                	page
Balcones Operating System for the XEROX 820-II	MACRO-80 3.44	09-Dec-81	PAGE	1-21
Console / Printer Drivers

                                
                                	above			;run this code upstairs
  00CD"                   +     	d&seg
                                
                                ;;	kbdst - keyboard status.
                                ;
                                ;	Returns A =  0 if no char
                                ;		A = -1 if char available
                                ;
  F0CD    3A FF30               kbdst:	ld	a,(fifcnt)	;get input fifo bytecount
  F0D0    B7                    	or	a
  F0D1    C8                    	ret	z		;if keyboard queue is empty
                                
                                ;;	soft - record soft error.
                                ;
  F0D2    F6 FF                 soft:	or	-1		;set ready / error status
  F0D4    C9                    	ret
                                
                                ;;	kbdin - Keyboard Input.
                                ;
                                ;	Returns A = character
                                ;
  F0D5    CD F066               kbdin1:	call	idle		;idle cpu
  F0D8    CD F0CD               kbdin:	call	kbdst
  F0DB    28 F8                 	jr	z,kbdin1	;loop until keyboard input ready
  F0DD    E5                    	push	hl
  F0DE    CD F130               	call	remove		;get keyboard entry
  F0E1    E1                    	pop	hl
  F0E2    E6 7F                 kbmask:	and	07fh
  F0E3                          mask	equ	$-1	;*****=>;this byte modified by ESC 0/1
  F0E4    C9                    	ret
                                
                                ;;	siost - sio channel b input ready status.
                                ;
  F0E5    DB 07                 siost:	in	a,(siocpb)	;get sio status register
  F0E7    E6 01                 	and	00000001b
  F0E9    C8                    	ret	z		;if no data available
  F0EA    3E FF                 	ld	a,-1
  F0EC    C9                    	ret
                                
                                ;;	sioin - Sio channel b input character.
                                ;
  F0ED    CD F066               sioin1:	call	idle		;idle cpu
  F0F0    CD F0E5               sioin:	call	siost		;test console status
  F0F3    28 F8                 	jr	z,sioin1	;loop until data is
  F0F5    DB 05                 	in	a,(siodpb)	;ready at sio data port
  F0F7    C9                    	ret
                                
                                ;;	sioout - Sio channel B output character.
                                ;
  F0F8    F5                    sioout:	push	af
  F0F9    CD F105               siox1:	call	siordy
  F0FC    CC F066               	call	z,idle		;idle cpu if transmitter not ready
  F0FF    28 F8                 	jr	z,siox1
  F101    F1                    	pop	af
Balcones Operating System for the XEROX 820-II	MACRO-80 3.44	09-Dec-81	PAGE	1-22
Console / Printer Drivers

  F102    D3 05                 	out	(siodpb),a	;output data to sio
  F104    C9                    	ret
                                
                                ;;	siordy - Sio channel B output ready ststus.
                                ;
  F105    3E 10                 siordy:	ld	a,10h		;reset status latch
  F107    D3 07                 	out	(siocpb),a
  F109    DB 07                 	in	a,(siocpb)
  F10B    E6 04                 	and	00000100b	;test tbe status bit
  F10C                          siomsk	equ	$-1	;*****=>;modified at run time
  F10D    EE 04                 	xor	00000100b
  F10E                          sioval	equ	$-1	;*****=>;modified at run time
  F10F    28 02                 	jr	z,siord1	;if hardware is ready
  F111    AF                    	xor	a
  F112    C9                    	ret
  F113    F6 FF                 siord1:	or	-1		;set ready status
  F115    00                    xonenb:	nop		;*****=>;put RET here to disable Xon/Xoff
  F116    CD F0E5               	call	siost
  F119    28 11                 	jr	z,siord3	;if input not available
  F11B    CD F0F0               	call	sioin
  F11E    E6 7F                 	and	7fh
  F120    D6 13                 	sub	Xoff
  F122    28 05                 	jr	z,siord2	;if printer said Stop
  F124    D6 FE                 	sub	Xon-Xoff
  F126    20 04                 	jr	nz,siord3	;if not Resume
  F128    2F                    	cpl			;set printer ready
  F129    32 F12D               siord2:	ld	(xofflg),a
  F12C    3E FF                 siord3:	ld	a,-1
  F12D                          xofflg	equ	$-1	;*****=>;set ^S pending flag
  F12E    B7                    	or	a
  F12F    C9                    	ret
                                
                                ;;	Remove - remove key from fifo.
                                ;
  F130    21 FF30               remove:	ld	hl,fifcnt	;decrement fifo count
  F133    35                    	dec	(hl)
  F134    21 FF32               	ld	hl,fifout	;point hl to fifo output offset
  F137    34                    index:	inc	(hl)		;advance fifo pointer
  F138    CB A6                 	res	4,(hl)		;modulo 16
  F13A    3E 20                 	ld	a,low fifo
  F13C    86                    	add	a,(hl)		;index into fifo by offset
  F13D    6F                    	ld	l,a
  F13E    7E                    	ld	a,(hl)		;fetch character in fifo
  F13F    C9                    nulint:	ret
                                
                                	subttl	Interrupt Service Routines
                                	page
Balcones Operating System for the XEROX 820-II	MACRO-80 3.44	09-Dec-81	PAGE	1-23
Interrupt Service Routines

                                
                                ;;	isr - interrupt service routines.
                                ;
                                service	macro
                                	ld	(savstk),sp	;;;save user stack pointer and
                                	ld	sp,intstk	;;;switch to local stack
                                	push	hl		;;;save machine state
                                	push	af
                                	endm
                                
                                ;;	keysrv - parallel keyboard interrupt service.
                                ;
  F140                          keysrv: service			;save state
  F140    ED 73 F1EC      +     	ld	(savstk),sp
  F144    31 FF50         +     	ld	sp,intstk
  F147    E5              +     	push	hl
  F148    F5              +     	push	af
  F149    C5                    	push	bc
  F14A    DB 1E                 lpk2:	in	a,(kbddat)	;read keyboard input port
  F14C    2F                    	cpl
  F14D    FE 9E                 	cp	Scrprt
  F14F    20 16                 	jr	nz,key2		;if not screen print key
  F151    3A F20E               	ld	a,(spact)
  F154    B7                    	or	a
  F155    28 0B                 	jr	z,key1		;if screen not printing now
  F157    3E 07                 	ld	a,3+(1 shl 2)	;set state to cr/lf/stop
  F159    32 F20E               	ld	(spact),a	;set screen print state
  F15C    AF                    	xor	a
  F15D    32 F224               	ld	(spcnt),a	;restart character counter
  F160    18 2D                 	jr	key5
  F162    CD F0BF               key1:	call	ssp		;start screen print
  F165    18 28                 	jr	key5
  F167    21 FF30               key2:	ld	hl,fifcnt	;bump input fifo character count
  F16A    FE 9B                 	cp	Abort		;check user Abort Key
  F16C    28 11                 	jr	z,key3		;warm start system
  F16E    4F                    	ld	c,a
  F16F    7E                    	ld	a,(hl)
  F170    3C                    	inc	a
  F171    FE 10                 	cp	16
  F173    30 1A                 	jr	nc,key5		;exit now if fifo is full
  F175    77                    	ld	(hl),a
  F176    21 FF31               	ld	hl,fifin	;point hl to fifo input offset
  F179    CD F137               	call	index
  F17C    71                    	ld	(hl),c		;store character in fifo @ hl
  F17D    18 10                 	jr	key5
  F17F    CD F1EF               key3:	call	retins		;release Pio interrupt controller
  F182    06 03                 	ld	b,3
  F184    36 00                 key4:	ld	(hl),0		;clear fifo count
  F186    2C                    	inc	l		;and fifo in/out pointers
  F187    10 FB                 	djnz	key4
  F189    CD F293               	call	crtoff		;turn crt memory off
  F18C    CD F003               	call	warm		;and warm start system
  F18F    C1                    key5:	pop	bc
  F190    18 57                 	jr	rfi		;return from interrupt
                                
Balcones Operating System for the XEROX 820-II	MACRO-80 3.44	09-Dec-81	PAGE	1-24
Interrupt Service Routines

                                ;;	timer - Once per second interrupt.
                                ;
  F192                          timer:	service
  F192    ED 73 F1EC      +     	ld	(savstk),sp
  F196    31 FF50         +     	ld	sp,intstk
  F199    E5              +     	push	hl
  F19A    F5              +     	push	af
  F19B    2A FF52               	ld	hl,(tikcnt)	;advance binary seconds counter
  F19E    23                    	inc	hl
  F19F    22 FF52               	ld	(tikcnt),hl
  F1A2    CD F048               	call	usrsec		;invoke user's interrupt routine
  F1A5    21 FF55               	ld	hl,timout	;decrement disk turn-off timer
  F1A8    35                    	dec	(hl)
  F1A9    20 06                 	jr	nz,timer1	;exit if not timed out yet
  F1AB    DB 1C                 	in	a,(syspio)
  F1AD    E6 F8                 	and	11111000b	;disable all drive selects which
  F1AF    D3 1C                 	out	(syspio),a	;turns off spindle motors
  F1B1    C5                    timer1:	push	bc
  F1B2    06 02                 	ld	b,2
  F1B4    3E 3B                 	ld	a,59
  F1B6    21 FF5B               	ld	hl,secs		;point at wall clock
  F1B9    34                    timer2:	inc	(hl)		;increment seconds
  F1BA    BE                    	cp	(hl)
  F1BB    30 2B                 	jr	nc,timer3	;if not one minute or hour
  F1BD    36 00                 	ld	(hl),0
  F1BF    2B                    	dec	hl
  F1C0    10 F7                 	djnz	timer2
  F1C2    3E 17                 	ld	a,23
  F1C4    34                    	inc	(hl)		;increment hours
  F1C5    BE                    	cp	(hl)
  F1C6    30 20                 	jr	nc,timer3	;if not one day
  F1C8    36 00                 	ld	(hl),0
  F1CA    D5                    	push	de
  F1CB    2B                    	dec	hl
  F1CC    2B                    	dec	hl
  F1CD    4E                    	ld	c,(hl)		;get month
  F1CE    2B                    	dec	hl		;point to day
  F1CF    11 F1F0               	ld	de,dpm-1	;point to day/month table
  F1D2    EB                    	ex	de,hl
  F1D3    09                    	add	hl,bc
  F1D4    7E                    	ld	a,(hl)		;get number of days
  F1D5    EB                    	ex	de,hl
  F1D6    D1                    	pop	de
  F1D7    34                    	inc	(hl)		;increment day
  F1D8    BE                    	cp	(hl)
  F1D9    30 0D                 	jr	nc,timer3	;if not end of month
  F1DB    36 01                 	ld	(hl),1		;reset day in month
  F1DD    23                    	inc	hl
  F1DE    34                    	inc	(hl)		;increment month
  F1DF    3E 0C                 	ld	a,12
  F1E1    BE                    	cp	(hl)
  F1E2    30 04                 	jr	nc,timer3	;if not new years eve
  F1E4    36 01                 	ld	(hl),1		;wrap december to january
  F1E6    23                    	inc	hl
  F1E7    34                    	inc	(hl)		;signal Guy Lombardo
  F1E8    C1                    timer3:	pop	bc
Balcones Operating System for the XEROX 820-II	MACRO-80 3.44	09-Dec-81	PAGE	1-25
Interrupt Service Routines

                                
                                ;;	rfi - return From Interrupt.
                                ;
  F1E9    F1                    rfi:	pop	af
  F1EA    E1                    	pop	hl
  F1EB    31 0000               	ld	sp,0		;restore stack
  F1EC                          savstk	equ	$-2	;*****=>;this word modified at runtime
  F1EE    FB                    	ei			;re-enable interrupts and return
  F1EF    ED 4D                 retins:	reti
                                
                                ;;	Table of days per month.
                                ;
  F1F1    1F                    dpm:	db	31		;january
  F1F2    1C                    	db	28		;febuary
  F1F3    1F                    	db	31		;march
  F1F4    1E                    	db	30		;april
  F1F5    1F                    	db	31		;may
  F1F6    1E                    	db	30		;june
  F1F7    1F                    	db	31		;july
  F1F8    1F                    	db	31		;august
  F1F9    1E                    	db	30		;september
  F1FA    1F                    	db	31		;october
  F1FB    1E                    	db	30		;november
  F1FC    1F                    	db	31		;december
                                
                                ;;	milli - Millisecond timer interrupt service.
                                ;
  F1FD                          milli:	service
  F1FD    ED 73 F1EC      +     	ld	(savstk),sp
  F201    31 FF50         +     	ld	sp,intstk
  F204    E5              +     	push	hl
  F205    F5              +     	push	af
  F206    2A FF50               	ld	hl,(Milsec)
  F209    23                    	inc	hl		;increment millisecond counter
  F20A    22 FF50               	ld	(Milsec),hl
  F20D    3E 00                 	ld	a,0		;set screen print flag
  F20E                          spact	equ	$-1	;*****=>;this byte modified at runtime
  F20F    67                    	ld	h,a
  F210    E6 03                 	and	3
  F212    28 6D                 	jr	z,mill6		;if not printing screen
  F214    6F                    	ld	l,a
  F215    CD F105               	call	siordy		;get printer status
  F218    28 67                 	jr	z,mill6		;if printer not ready
  F21A    2D                    	dec	l
  F21B    20 48                 	jr	nz,mill2	;if not character print state
  F21D    DB 1C                 	in	a,(syspio)	;get pio state
  F21F    F5                    	push	af
  F220    CD F29C               	call	crton
  F223    3E 00                 	ld	a,0		;get character count
  F224                          spcnt	equ	$-1	;*****=>;byte modified at runtime
  F225    3D                    	dec	a
  F226    FA F236               	jp	m,mil0		;if end of line
  F229    32 F224               	ld	(spcnt),a
  F22C    21 0000               	ld	hl,0		;set next character address
  F22D                          spaddr	equ	$-2	;*****=>;word modified at runtime
  F22F    7E                    lpk7:	ld	a,(hl)
Balcones Operating System for the XEROX 820-II	MACRO-80 3.44	09-Dec-81	PAGE	1-26
Interrupt Service Routines

  F230    D3 05                 	out	(siodpb),a	;fire hammer
  F232    2C                    	inc	l		;advance screen cursor
  F233    AF                    	xor	a		;do not advance state
  F234    18 22                 	jr	mill1		;if not end of line
  F236    3E 61                 mil0:	ld	a,1+(24 shl 2)	;set address of next print line
  F238    94                    	sub	h
  F239    1F                    	rra
  F23A    CB 2F                 	sra	a
  F23C    CD F31E               	call	cca		;compute cursor address
  F23F    E5                    	push	hl		;save next line address
  F240    C5                    	push	bc
  F241    06 50                 	ld	b,80		;delete  trailing blanks
  F243    7D                    	ld	a,l
  F244    80                    	add	a,b
  F245    6F                    	ld	l,a
  F246    2D                    mil01:	dec	l
  F247    7E                    	ld	a,(hl)		;get next character
  F248    E6 7F                 	and	7fh
  F24A    FE 20                 	cp	' '
  F24C    20 02                 	jr	nz,mil02	;if not trailing blank
  F24E    10 F6                 	djnz	mil01
  F250    78                    mil02:	ld	a,b
  F251    32 F224               	ld	(spcnt),a	;set number of characters to print
  F254    C1                    	pop	bc
  F255    E1                    	pop	hl
  F256    3E 03                 	ld	a,3		;set CR next state
  F258    22 F22D               mill1:	ld	(spaddr),hl	;set next display address
  F25B    21 F20E               	ld	hl,spact	;set state variable
  F25E    B6                    	or	(hl)		;advance state
  F25F    77                    	ld	(hl),a
  F260    F1                    	pop	af		;get pio back
  F261    D3 1C                 	out	(syspio),a
  F263    18 1C                 	jr	mill6
  F265    2D                    mill2:	dec	l		;check next state
  F266    21 F20E               	ld	hl,spact	;set state address
  F269    20 11                 	jr	nz,mill4	;if not lf state
  F26B    7E                    	ld	a,(hl)
  F26C    D6 04                 	sub	1 shl 2		;advance line counter
  F26E    77                    	ld	(hl),a
  F26F    FE FE                 	cp	2-(1 shl 2)
  F271    20 05                 	jr	nz,mill3
  F273    3E 01                 	ld	a,1		;disable ctc interrupt
  F275    D3 19                 	out	(ctc1),a
  F277    77                    	ld	(hl),a
  F278    3E 0A                 mill3:	ld	a,lf		;set line feed
  F27A    18 02                 	jr	mill5
  F27C    3E 0D                 mill4:	ld	a,cr		;set carriage return
  F27E    D3 05                 mill5:	out	(siodpb),a	;move paper or carriage
  F280    35                    	dec	(hl)
  F281    C3 F1E9               mill6:	jp	rfi		;return from interrupt
                                
                                	
                                	subttl	Crt Driver
                                	page
Balcones Operating System for the XEROX 820-II	MACRO-80 3.44	09-Dec-81	PAGE	1-27
Crt Driver

                                
                                ;;	setcur - set direct display cursor position.
                                ;
  F284    22 FFAF               setcur:	ld	(dircur),hl	;set up cursor address
  F287    C9                    	ret
                                
                                ;;	outcur - store character directly to crt memory.
                                ;
  F288    CD F29C               outcur:	call	crton		;turn on crt bank
  F28B    2A FFAF               	ld	hl,(dircur)	;fetch direct cursor
  F28E    71                    	ld	(hl),c		;store character
  F28F    23                    	inc	hl
  F290    22 FFAF               	ld	(dircur),hl
                                
                                ;;	crtoff - turn crt ram off.
                                ;
  F293    F3                    crtoff:	di			;lock pio access
  F294    DB 1C                 	in	a,(syspio)
  F296    CB BF                 crtof1:	res	7,a		;reset crt bank enable
  F298    FB                    	ei			;unlock pio access
  F299    D3 1C                 crton1:	out	(syspio),a
  F29B    C9                    	ret
                                
                                ;;	crton - turn crt ram on.
                                ;
  F29C    F3                    crton:	di			;lock time-out interrupt
  F29D    DB 1C                 	in	a,(syspio)	;get pio status
  F29F    CB FF                 	set	7,a		;enable bank
  F2A1    18 F6                 	jr	crton1
                                
                                ;;	block move from/to crt memory.
                                ;
                                ;	Entry:	HL = Source address
                                ;		DE = Destination address
                                ;		BC = Number of bytes to move
                                ;		A  = 0 - Move crt ram to crt ram
                                ;		A  < 0 - Move sys ram to crt ram 
                                ;		A  > 0 - Move crt ram to sys ram
                                ;
  F2A3    ED 73 F31B            crtldir:ld	(usrstk),sp	;do not use callers stack
  F2A7    31 FFE0               	ld	sp,crtstk	;since it may disappear
  F2AA    A7                    	and	a		;set entry conditions
  F2AB    CD F29C               	call	crton
  F2AE    28 37                 	jr	z,crtmv		;block move within crt ram
  F2B0    F2 F2B5               	jp	p,ldir2		;if move from crt ram to system ram
  F2B3    EE 80                 ldir1:	xor	80h
  F2B5    D3 1C                 ldir2:	out	(syspio),a	;enable source bank
  F2B7    E5                    	push	hl		;save move source address
  F2B8    21 FFB0               	ld	hl,-80		;count down one transfer buffer
  F2BB    ED 4A                 	adc	hl,bc
  F2BD    E3                    	ex	(sp),hl		;save overflow, retrieve source address
  F2BE    FA F2C4               	jp	m,ldir3		;if less than one buffer
  F2C1    01 0050               	ld	bc,80		;transfer one buffer
  F2C4    C5                    ldir3:	push	bc		;save byte count
  F2C5    D5                    	push	de		;save destination address
Balcones Operating System for the XEROX 820-II	MACRO-80 3.44	09-Dec-81	PAGE	1-28
Crt Driver

  F2C6    11 FF5C               	ld	de,linbuf	;set upper buffer
  F2C9    ED B0                 	ldir			;move data to upper ram
  F2CB    D1                    	pop	de
  F2CC    C1                    	pop	bc
  F2CD    DB 1C                 	in	a,(syspio)	;enable destination bank
  F2CF    EE 80                 	xor	80h
  F2D1    D3 1C                 	out	(syspio),a
  F2D3    E5                    	push	hl		;save source address
  F2D4    21 FF5C               	ld	hl,linbuf	;set upper  buffer
  F2D7    ED B0                 	ldir			;move data from buffer to destination
  F2D9    E1                    	pop	hl
  F2DA    C1                    	pop	bc		;retrieve bytes left to transfer
  F2DB    78                    	ld	a,b
  F2DC    A7                    	and	a
  F2DD    FA F2E9               	jp	m,crtmvo	;no more move, turn crt ram off and return
  F2E0    B1                    	or	c
  F2E1    28 06                 	jr	z,crtmvo	;if no more
  F2E3    DB 1C                 	in	a,(syspio)
  F2E5    18 CC                 	jr	ldir1		;continue transfer one buffer at a crack
                                
  F2E7                          crtmv:	ldirs
  F2E7    ED B0           +     	ldir
  F2E9    CD F293               crtmvo:	call	crtoff		;turn crt ram off
  F2EC    ED 7B F31B            	ld	sp,(usrstk)
  F2F0    C9                    	ret
                                
                                	if	ldirsm
                                ;;	simldir - Simulate LDIR for broken hardware.
                                ;
                                simldir:ld	a,(hl)		;move one byte
                                	ld	(de),a
                                	inc	hl		;advance addresses
                                	inc	de
                                	dec	bc		;decrement byte count
                                	ld	a,b
                                	or	c
                                	jr	nz,simldir	;if move incomplete
                                	ret
                                	endif
                                
                                	subttl	Resident Crt Driver.
                                	page
Balcones Operating System for the XEROX 820-II	MACRO-80 3.44	09-Dec-81	PAGE	1-29
Resident Crt Driver.

                                
                                ;;	crtout - Crt Output Driver.
                                ;
                                ;	Entry:	Character in register A
                                ;		16 bytes of stack space available
                                ;	Exit:	Char displayed, all registers saved
                                ;
  F2F1    E5                    crtout:	push	hl		;maintain users registers on his stack
  F2F2    D5                    	push	de
  F2F3    C5                    	push	bc
  F2F4    F5                    	push	af
  F2F5    4F                    	ld	c,a		;set character to process
  F2F6    CD F2FE               	call	fastcrt		;process character quickly
  F2F9    F1                    	pop	af		;restore callers registers
  F2FA    C1                    	pop	bc
  F2FB    D1                    	pop	de
  F2FC    E1                    	pop	hl
  F2FD    C9                    	ret
                                
                                ;;	fastcrt - fast crt driver.
                                ;
                                ;	Entry:	Character in C
                                ;	Exit:	The only register preserved is SP
                                ;		Peeking in register A reveals valuable characters.
                                ;
  F2FE    ED 73 F31B            fastcrt:ld	(usrstk),sp	;do not use callers stack
  F302    31 FFE0               	ld	sp,crtstk	;since it may disappear
  F305    DD E5                 	push	ix		;since PLINK ignores register usage rules
  F307    DB 1C                 	in	a,(syspio)	;read system pio
  F309    B7                    	or	a		;set bank enable status
  F30A    F5                    	push	af		;save status for exit code
  F30B    CD F29C               	call	crton		;turn on crt memory
  F30E    FB                    	ei			;enable interrupts
  F30F    CD 01DE               lpk5:	call	crtdvr		;execute crt driver rom
  F312    F1                    	pop	af		;get previous bank enable status
  F313    F4 F293               	call	p,crtoff	;disable bank now if it was disabled on entry
  F316    DD E1                 	pop	ix
  F318    3E 00                 	ld	a,0		;sneak balcones golden characters to FAST users
  F319                          gold	equ	$-1
  F31A    31 F31B               	ld	sp,usrstk	;restore callers stack
  F31B                          usrstk	equ	$-2	;*****=>;this operand word is modified at runtime
  F31D    C9                    	ret
                                
                                ;;	cca - compute cursor address.
                                ;
                                ;	Entry:	A = Row
                                ;
  F31E    67                    cca:	ld	h,a
  F31F    3A FFB1               	ld	a,(base)
  F322    84                    	add	a,h
  F323    3C                    cca1:	inc	a		;entry with base absolute
  F324    D6 18                 cca2:	sub	24		;ditto
  F326    30 FC                 	jr	nc,cca2
  F328    C6 78                 	add	a,24+2*crtbas
  F32A    67                    	ld	h,a
Balcones Operating System for the XEROX 820-II	MACRO-80 3.44	09-Dec-81	PAGE	1-30
Resident Crt Driver.

  F32B    2E 00                 	ld	l,0
  F32D    CB 2C                 	sra	h
  F32F    CB 1D                 	rr	l
  F331    C9                    	ret
                                
                                ;;	rstatt - Restore Previous Attribute.
                                ;
  F332    01 0000               rstatt:	ld	bc,0		;execute previous attribute routine
  F333                          lstatt	equ	$-2
  F335    C5                    	push	bc
  F336    C9                    	ret
                                
  F337    E5                    setprv:	push	hl
  F338    21 0244               	ld	hl,setlow
  F339                          prvatt	equ	$-2
  F33B    22 F333               	ld	(lstatt),hl
  F33E    ED 43 F339            	ld	(prvatt),bc
  F342    E1                    	pop	hl
  F343    C9                    	ret
                                
                                	subttl	Rom-resident Crt Driver
                                	page
Balcones Operating System for the XEROX 820-II	MACRO-80 3.44	09-Dec-81	PAGE	1-31
Rom-resident Crt Driver

                                
                                	below			;execute in banked rom
  0000!                   +     	defs	comres
                                
                                ;;	crtdvr - Crt Driver Proper.
                                ;
  01DE    2A FFAC               crtdvr:	ld	hl,(cursor)	;set cursor address
  01E1    3A FFB4               	ld	a,(chrsav)	;retrieve character under cursor
  01E4    77                    	ld	(hl),a		;replace character under cursor
  01E5    32 F319               	ld	(gold),a	;bury balcones gold
  01E8    3A FFB2               	ld	a,(leadin)	;set leadin state
  01EB    B7                    	or	a
  01EC    20 1D                 	jr	nz,crtd2	;if processing escape sequence
  01EE    3A F0E3               	ld	a,(mask)	;get keyboard mask
  01F1    A1                    	and	c
  01F2    4F                    	ld	c,a
  01F3    FE 20                 	cp	' '
  01F5    38 14                 	jr	c,crtd2		;if control code
  01F7    3A FFB3               crtd1:	ld	a,(attrib)
  01FA    B1                    	or	c
  01FB    77                    	ld	(hl),a		;store displayable character
  01FC    2C                    	inc	l		;advance pointer to next column
  01FD    7D                    	ld	a,l
  01FE    E6 7F                 	and	01111111b	;extract column# from hl
  0200    FE 50                 	cp	80
  0202    38 0A                 	jr	c,crtd3		;if end of line not reached
  0204    AD                    	xor	l
  0205    6F                    	ld	l,a		;return cursor to left side
  0206    CD 036C               	call	lfeed		;execute line feed
  0209    18 03                 	jr	crtd3
  020B    CD 02B2               crtd2:	call	contrl		;process control character
  020E    22 FFAC               crtd3:	ld	(cursor),hl	;save cursor pointer for next time
  0211    7E                    	ld	a,(hl)		;get character at new cursor location
  0212    32 FFB4               	ld	(chrsav),a	;save for next time 'CRTOUT' is called
  0215    3A FFAE               	ld	a,(csrchr)	;get cursor character
  0218    FE 20                 	cp	' '
  021A    C8                    	ret	z		;if no cursor
  021B    4F                    	ld	c,a
  021C    7E                    	ld	a,(hl)
  021D    CB BF                 	res	7,a
  021F    FE 20                 	cp	' '
  0221    79                    	ld	a,c		;set character used for cursor
  0222    28 03                 	jr	z,crtd4		;if character is a space
  0224    7E                    	ld	a,(hl)		;toggle attribute
  0225    EE 80                 	xor	80h
  0227    77                    crtd4:	ld	(hl),a		;store cursor character
  0228    C9                    	ret
                                
                                ;;	multi - Process multiple character escape sequence.
                                ;
  0229    EB                    multi:	ex	de,hl		;unconditionally reset the lead-in
  022A    36 00                 	ld	(hl),0		;state to zero
  022C    EB                    	ex	de,hl
  022D    3D                    	dec	a
  022E    20 4E                 	jr	nz,setxy1	;if not initial state
Balcones Operating System for the XEROX 820-II	MACRO-80 3.44	09-Dec-81	PAGE	1-32
Rom-resident Crt Driver

  0230    79                    	ld	a,c		;get second character of sequence
                                
                                	if	(options and o.esct) eq 0
                                	cp	'='
                                	jr	nz,multi1
                                	ld	a,2
                                	ld	(de),a
                                	ret
                                multi1:	pop	af		;pitch return address
                                	jr	crtd1
                                	endif
                                
                                	if	(options and o.esct) ne 0
                                ;;	Escape table search
                                ;
  0231    E5                    	push	hl
  0232    21 02FF               	ld	hl,esctab
  0235    01 0011               	ld	bc,esctbl
  0238    ED B1                 search:	cpir
  023A    09                    	add	hl,bc
  023B    09                    	add	hl,bc
  023C    09                    	add	hl,bc
  023D    4E                    	ld	c,(hl)
  023E    23                    	inc	hl
  023F    46                    	ld	b,(hl)
  0240    E1                    	pop	hl
  0241    C0                    	ret	nz
  0242    C5                    	push	bc
  0243    C9                    	ret
                                	endif			;options and o.esct
                                
                                ;;	Set attribute modes.
                                ;
  0244    D3 36                 setlow:	out	(lowlite),a	;set lo-light mode
  0246    C3 F337               	jp	setprv
                                
  0249    D3 35                 setbli:	out	(chrom2),a	;select rom 2
  024B    AF                    	xor	a		;select standard char set
  024C    18 08                 	jr	mode1
                                
  024E    D3 35                 setinv:	out	(chrom2),a	;select rom 2
  0250    18 02                 	jr	mode	
                                
  0252    D3 34                 setgra:	out	(chrom1),a	;select rom 1
  0254    3E 40                 mode:	ld	a,40h		;select alternate char set
  0256    CD F337               mode1:	call	setprv		;set up previous attribute
  0259    47                    	ld	b,a
  025A    F3                    	di			;lock system
  025B    DB 1C                 	in	a,(syspio)	;read system pio
  025D    CB B7                 	res	6,a		;clear rom select bit
  025F    B0                    	or	b
  0260    FB                    	ei			;unlock
  0261    D3 1C                 	out	(syspio),a	;set or reset display mode
  0263    C9                    	ret
                                
                                ;;	Enable/disable (D7) display of selected attribute mode
Balcones Operating System for the XEROX 820-II	MACRO-80 3.44	09-Dec-81	PAGE	1-33
Rom-resident Crt Driver

                                ;
  0264    3E 80                 enatr:	ld	a,80h
                                ;	jr	dis1
  0266    06                    	db	6 ;ld b,	;skip xor
                                
  0267    AF                    disatr:	xor	a
  0268    32 FFB3               dis1:	ld	(attrib),a
  026B    C9                    	ret
                                
                                ;;	setmsk - Select 7 or 8 bit data  from keyboard
                                ;
  026C    0F                    setmsk:	rrca			;get low order bit as upper bit mask
  026D    F6 7F                 	or	7fh
  026F    4F                    	ld	c,a
  0270    11 F0E3               	ld	de,mask
  0273    1A                    	ld	a,(de)
  0274    32 F319               	ld	(gold),a	;stash balcones gold
  0277    79                    	ld	a,c
  0278    12                    	ld	(de),a		;store keyboard mask
  0279    C9                    	ret
                                
                                ;;	Process cursor position sequence.
                                ;
  027A    3E 02                 setxy:	ld	a,2
  027C    12                    	ld	(de),a		;make leadin=2 next time
  027D    C9                    	ret
                                
  027E    3D                    setxy1:	dec	a
  027F    20 10                 	jr	nz,m3tst	;if not in state 2
  0281    6F                    	ld	l,a		;clear low cursor pos
  0282    3E 03                 	ld	a,3
  0284    12                    	ld	(de),a		;set state 3 for next time
  0285    79                    setrow:	ld	a,c
  0286    E6 7F                 	and	07fh		;strip parity bit
  0288    D6 20                 	sub	' '
  028A    D8                    	ret	c		;if illegal character
  028B    FE 18                 	cp	24
  028D    D0                    	ret	nc
  028E    C3 F31E               	jp	cca		;compute cursor address
                                
  0291    3D                    m3tst:	dec	a
  0292    20 0C                 	jr	nz,m4tst	;if not ready for column
  0294    79                    setcol:	ld	a,c
  0295    E6 7F                 	and	07fh		;strip parity bit
  0297    D6 20                 	sub	' '		; of esc,'=',row,col sequence
  0299    D8                    	ret	c
  029A    FE 50                 	cp	80
  029C    D0                    	ret	nc
  029D    B5                    	or	l		;merge in col# with l
  029E    6F                    	ld	l,a
  029F    C9                    	ret
                                
  02A0    3D                    m4tst:	dec	a
  02A1    20 04                 	jr	nz,m5tst	;if not escape state 4
  02A3    D1                    	pop	de		;pitch address of crtd3
  02A4    C3 01F7               	jp	crtd1		;display character in C
Balcones Operating System for the XEROX 820-II	MACRO-80 3.44	09-Dec-81	PAGE	1-34
Rom-resident Crt Driver

                                
  02A7    3A FFAE               m5tst:	ld	a,(csrchr)
  02AA    32 F319               	ld	(gold),a	;stash balcones gold
  02AD    79                    	ld	a,c
  02AE    32 FFAE               	ld	(csrchr),a	;store new cursor character
  02B1    C9                    	ret
                                
                                ;;	contrl - process control character.
                                ;
  02B2    11 FFB2               contrl:	ld	de,leadin	;point at leadin state
  02B5    D2 0229               	jp	nc,multi	;if multi code sequence in progress
  02B8    FE 05                 	cp	'E'-64
  02BA    D8                    	ret	c		;control char is out of range
  02BB    E5                    	push	hl		;save cursor
  02BC    21 02BF               	ld	hl,ctltab-('E'-64)*2
  02BF    06 00                 	ld	b,0
  02C1    09                    	add	hl,bc		;index through control character table
  02C2    09                    	add	hl,bc
  02C3    4E                    	ld	c,(hl)
  02C4    23                    	inc	hl
  02C5    46                    	ld	b,(hl)		;get address of control subroutine
  02C6    E1                    	pop	hl
  02C7    C5                    	push	bc
  02C8    C9                    	ret			;execute control code driver
                                
                                	if	(options and o.esct) eq 0
                                ctltab:	defw	defcur		;Ctrl-e is define new cursor character
                                	defw	rstatt		;Ctrl-f is restore previous attribute mode
                                	defw	bell		;Ctrl-g is the bell
                                	defw	bakspc		;Ctrl-h is cursor left
                                	defw	tab		;Ctrl-i is tab
                                	defw	lfeed		;Ctrl-j is cursor down
                                	defw	upcsr		;Ctrl-k is cursor up
                                	defw	forspc		;Ctrl-l is cursor right
                                	defw	return		;Ctrl-m is carriage return
                                	defw	setmsk		;Ctrl-n is strip keyboard upper bit
                                	defw	setmsk		;Ctrl-o is pass keyboard upper bit
                                	defw	enatr		;Ctrl-p is enable screen upper bit
                                	defw	clreos		;Ctrl-q is clear to end-of-screen
                                	defw	setlow		;Ctrl-r is set lo-lite mode
                                	defw	setinv		;Ctrl-s is set inverse video mode
                                	defw	setgra		;Ctrl-t is set graphics mode
                                	defw	setbli		;Ctrl-u is set blinking mode
                                	defw	linins		;Ctrl-v is line insert
                                	defw	lindel		;Ctrl-w is line delete
                                	defw	clreol		;Ctrl-x is clear to end-of-line
                                	defw	disatr		;Ctrl-y is disable screen upper bit
                                	defw	clrscn		;Ctrl-z is clear screen
                                	defw	escape		;Ctrl-[ is escape
                                	defw	chrins		;Ctrl-\ is character insert
                                	defw	chrdel		;Ctrl-] is character delete
                                	defw	homeup		;Ctrl-^ is home up
                                	defw	stuff		;Ctrl-_ is display control chars
                                
                                ctlsiz	equ	$-ctltab
                                	endif			;options and o.esct
Balcones Operating System for the XEROX 820-II	MACRO-80 3.44	09-Dec-81	PAGE	1-35
Rom-resident Crt Driver

                                
                                
                                	if	(options and o.esct) ne 0
  02C9    033A                  ctltab:	defw	defcur		;Ctrl-e is define new cursor character
  02CB    F332                  	defw	rstatt		;Ctrl-f is restore previous attribute mode
  02CD    03A4                  	defw	bell		;Ctrl-g is the bell
  02CF    0343                  	defw	bakspc		;Ctrl-h is cursor left
  02D1    0394                  	defw	tab		;Ctrl-i is tab
  02D3    036C                  	defw	lfeed		;Ctrl-j is cursor down
  02D5    0351                  	defw	upcsr		;Ctrl-k is cursor up
  02D7    0349                  	defw	forspc		;Ctrl-l is cursor right
  02D9    0367                  	defw	return		;Ctrl-m is carriage return
  02DB    0335                  	defw	nono		;Ctrl-n is not acceptable
  02DD    0335                  	defw	nono		;Ctrl-o is not acceptable
  02DF    0335                  	defw	nono		;Ctrl-p is not acceptable
  02E1    03D6                  	defw	clreos		;Ctrl-q is clear to end-of-screen
  02E3    0335                  	defw	nono		;Ctrl-r is not acceptable
  02E5    0335                  	defw	nono		;Ctrl-s is not acceptable
  02E7    0335                  	defw	nono		;Ctrl-t is not acceptable
  02E9    0335                  	defw	nono		;Ctrl-u is not acceptable
  02EB    0335                  	defw	nono		;Ctrl-v is not acceptable
  02ED    0335                  	defw	nono		;Ctrl-w is not acceptable
  02EF    03B9                  	defw	clreol		;Ctrl-x is clear to end-of-line
  02F1    0335                  	defw	nono		;Ctrl-y is not acceptable
  02F3    03CC                  	defw	clrscn		;Ctrl-z is clear screen
  02F5    0332                  	defw	escape		;Ctrl-[ is escape
  02F7    0335                  	defw	nono		;Ctrl-\ is not acceptable
  02F9    0335                  	defw	nono		;Ctrl-] is not acceptable
  02FB    033E                  	defw	homeup		;Ctrl-^ is home up
  02FD    0336                  	defw	stuff		;Ctrl-_ is display control chars
                                
  0036                          ctlsiz	equ	$-ctltab
                                
                                ;;	Escape sequence table.
                                ;
                                ;	Maintains functional compatibility with terminals supporting
                                ;	ADM-3a style supersets.
                                ;
  02FF    28                    esctab:	db	'('		;disable attribute (Soroc/Televideo, et.al)
  0300    29                    	db	')'		;enable atribute (Soroc/Televideo, et.al)
  0301    2A                    	db	'*'		;clear screen (Soroc/Televideo, et.al)
  0302    30                    	db	'0'		;strip keyboard upper bit
  0303    31                    	db	'1'		;pass keyboard upper bit
  0304    34                    	db	'4'		;char font and blinking
  0305    35                    	db	'5'		;char font and graphics
  0306    36                    	db	'6'		;char font and blinking
  0307    37                    	db	'7'		;char font and inverse video
  0308    38                    	db	'8'		;char font and lo-light
  0309    3D                    	db	'='		;position cursor
  030A    45                    	db	'E'		;line insert (Televideo, et.al)
  030B    51                    	db	'Q'		;character insert (Televideo, et. al)
  030C    52                    	db	'R'		;line delete (Televideo, et. al)
  030D    57                    	db	'W'		;character delete (Televideo, et. al)      
  030E    54                    	db	'T'		;clear to end of line (Televideo, et. al)
  030F    59                    	db	'Y'		;clear to end of screen (Televideo, et. al)
  0011                          esctbl	equ	$-esctab
Balcones Operating System for the XEROX 820-II	MACRO-80 3.44	09-Dec-81	PAGE	1-36
Rom-resident Crt Driver

                                
  0310    03D6                  escadr:	defw	clreos
  0312    03B9                  	defw	clreol
  0314    046A                  	defw	chrdel
  0316    03F1                  	defw	lindel
  0318    0451                  	defw	chrins
  031A    0419                  	defw	linins
  031C    027A                  	defw	setxy
  031E    0244                  	defw	setlow
  0320    024E                  	defw	setinv
  0322    0249                  	defw	setbli
  0324    0252                  	defw	setgra
  0326    0249                  	defw	setbli
  0328    026C                  	defw	setmsk
  032A    026C                  	defw	setmsk
  032C    03CC                  	defw	clrscn
  032E    0264                  	defw	enatr
  0330    0267                  	defw	disatr
                                	if1
                                	if	($-escadr)/2 ne esctbl
                                	.printx	Escape table mismatch
                                	endif
                                	endif
                                	endif			;o.esct and options
                                
                                ;;	escape - Initialize escape sequence.
                                ;
  0332    3E 01                 escape:	ld	a,1
  0334    12                    	ld	(de),a		;set sequence state
  0335    C9                    nono:	ret			;for escape processing
                                
                                ;;	stuff - Enable next char to be stored directly.
                                ;
  0336    3E 04                 stuff:	ld	a,4
  0338    12                    	ld	(de),a		;set sequence state
  0339    C9                    	ret			;for control char output mode
                                
                                ;;	defcur - Enable next chara to be new cursor.
                                ;
  033A    3E 05                 defcur:	ld	a,5
  033C    12                    	ld	(de),a
  033D    C9                    	ret
                                
                                ;;	homeup - Move cursor to upper left.
                                ;
  033E    0E 20                 homeup:	ld	c,' '		;use cursor addressing routine
  0340    C3 0285               	jp	setrow		;to do homeup almost for free
                                
                                ;;	bakspc - Move cursor left.
                                ;
  0343    7D                    bakspc:	ld	a,l		;check for left margin
  0344    E6 7F                 	and	01111111b
  0346    C8                    	ret	z		;abort if in leftmost column
  0347    2D                    	dec	l		;back up cursor pointer
  0348    C9                    	ret
                                
Balcones Operating System for the XEROX 820-II	MACRO-80 3.44	09-Dec-81	PAGE	1-37
Rom-resident Crt Driver

                                ;;	forspc - Move cursor right.
                                ;
  0349    7D                    forspc:	ld	a,l		;check for rightmost colunm
  034A    E6 7F                 	and	01111111b
  034C    FE 4F                 	cp	79
  034E    D0                    	ret	nc		;do nothing if already there
  034F    2C                    	inc	l
  0350    C9                    	ret			;else advance the cursor pointer
                                
                                ;;	upscr - Move cursor up.
                                ;
  0351    11 FF80               upcsr:	ld	de,-128		;subtract 1 from row# component
  0354    19                    	add	hl,de		; of cursor pointer in hl
  0355    7C                    	ld	a,h
  0356    FE 30                 	cp	crtbas		;check for underflow of pointer
  0358    D0                    	ret	nc
  0359    26 3B                 	ld	h,crttop-1	;wrap cursor around modulo 3k
  035B    C9                    	ret
                                
                                ;;	dncsr - Move cursor down.
                                ;
  035C    11 0080               dncsr:	ld	de,128		;add 1 to row# component
  035F    19                    	add	hl,de		; of cursor pointer in hl
  0360    7C                    	ld	a,h
  0361    FE 3C                 	cp	crttop		;check for overflow of pointer
  0363    D8                    	ret	c
  0364    26 30                 	ld	h,crtbas	;reset pointer modulo 128*24
  0366    C9                    	ret
                                
                                ;;	return - Move cursor to left side.
                                ;
  0367    7D                    return:	ld	a,l		;clear column
  0368    E6 80                 	and	10000000b
  036A    6F                    	ld	l,a		;move cursor pointer back
  036B    C9                    	ret			; to start of line
                                
                                ;;	lfeed - Move cursor down with scroll.
                                ;
  036C    7D                    lfeed:	ld	a,l
  036D    17                    	rla
  036E    7C                    	ld	a,h
  036F    17                    	rla			;extract row# component of hl
  0370    E6 1F                 	and	00011111b
  0372    4F                    	ld	c,a		;copy row# into c for scroll test
  0373    CD 035C               	call	dncsr		;move cursor to next row down
  0376    3A FFB1               	ld	a,(base)	;test if cursor was on bottom row
  0379    91                    	sub	c		;of screen before moving down
  037A    32 F319               	ld	(gold),a	;send scroll flag back to fast users
  037D    C0                    	ret	nz		;exit if not at bottom
  037E    E5                    	push	hl		;prepare scroll screen up
  037F    3A F31C               	ld	a,(usrstk+1)
  0382    3C                    	inc	a
  0383    C4 0484               	call	nz,bbg		;bury balcones gold, unless monitor running
  0386    CD 03B6               	call	clrlin		;fill top line with spaces
  0389    29                    	add	hl,hl
  038A    7C                    	ld	a,h		;get row# component of hl into a
Balcones Operating System for the XEROX 820-II	MACRO-80 3.44	09-Dec-81	PAGE	1-38
Rom-resident Crt Driver

  038B    E6 1F                 	and	00011111b
  038D    32 FFB1               	ld	(base),a	;store new base line#
  0390    D3 14                 	out	(scroll),a	;scroll top line to bottom
  0392    E1                    	pop	hl		;restore cursor
  0393    C9                    	ret
                                
                                ;;	tab - Move cursor to next tab stop.
                                ;
  0394    11 0008               tab:	ld	de,8		;tabs are every 8 columns
  0397    7D                    	ld	a,l		;get column component of
  0398    E6 78                 	and	01111000b	;previous tab position
  039A    83                    	add	a,e
  039B    FE 50                 	cp	80
  039D    D0                    	ret	nc		;if next tab column past end of line
  039E    7D                    	ld	a,l
  039F    E6 F8                 	and	11111000b	;advance cursor to next tab stop
  03A1    6F                    	ld	l,a
  03A2    19                    	add	hl,de
  03A3    C9                    	ret
                                
                                ;;	bell - Move speaker back and forth.
                                ;
  03A4    3E 35                 bell:	ld	a,bltim		;Bell time constant
  03A6    D3 29                 bell1:	out	(bellon),a	;push speaker out
  03A8    06 61                 	ld	b,blonc		;set Bell on time constant
  03AA    10 FE                 	djnz	$		;pause B*2 micro seconds
  03AC    D3 28                 	out	(bellof),a	;yank speaker in
  03AE    06 61                 	ld	b,blofc		;set Bell off time constant
  03B0    10 FE                 	djnz	$
  03B2    3D                    	dec	a
  03B3    20 F1                 	jr	nz,bell1	;if more noise to make
  03B5    C9                    	ret
                                
                                ;;	clrlin - Clear line.
                                ;
  03B6    CD 0367               clrlin:	call	return		;return cursor and fall through clreol
                                
                                ;;	clreol - Clear to end of line.
                                ;
  03B9    7D                    clreol:	ld	a,l
  03BA    E6 7F                 	and	01111111b	;get column component of cursor posistion
  03BC    FE 50                 	cp	80
  03BE    D0                    	ret	nc		;if someone busted curpos
  03BF    ED 44                 	neg
  03C1    C6 50                 	add	a,80		;calculate number of characters to clear
  03C3    47                    	ld	b,a
  03C4    7D                    	ld	a,l		;save cursor column
  03C5    36 20                 clr1:	ld	(hl),' '	;clear next location
  03C7    2C                    	inc	l
  03C8    10 FB                 	djnz	clr1		;if end of line not clear
  03CA    6F                    	ld	l,a		;restore cursor column
  03CB    C9                    	ret
                                
                                ;;	clrscn - clear visible screen memory.
                                ;
  03CC    21 3000               clrscn:	ld	hl,crtmem	;home cursor
Balcones Operating System for the XEROX 820-II	MACRO-80 3.44	09-Dec-81	PAGE	1-39
Rom-resident Crt Driver

  03CF    3E 17                 	ld	a,23
  03D1    32 FFB1               	ld	(base),a	;put line 23 at bottom of screen
  03D4    D3 14                 	out	(scroll),a	;note scroll register gets A8-A12, not d0-d7
                                
                                ;;	clreos - clear to end of screen.
                                ;
  03D6    CD 03B9               clreos:	call	clreol		;clear remainder of current row
  03D9    E5                    	push	hl		;save cursor location
  03DA    ED 4B FFB1            clrs1:	ld	bc,(base)	;set bottom screen row to c
  03DE    7D                    	ld	a,l
  03DF    17                    	rla
  03E0    7C                    	ld	a,h
  03E1    17                    	rla			;get row# component of hl into a
  03E2    E6 1F                 	and	00011111b
  03E4    B9                    	cp	c
  03E5    28 08                 	jr	z,clrs2		;if hl is on bottom row of screen
  03E7    CD 035C               	call	dncsr		;point hl to next row
  03EA    CD 03B6               	call	clrlin		;and fill that line with spaces
  03ED    18 EB                 	jr	clrs1
  03EF    E1                    clrs2:	pop	hl		;restore original cursor pointer
  03F0    C9                    	ret
                                
                                ;;	lindel - Line delete.
                                ;
  03F1    E5                    lindel:	push	hl		;save cursor address
  03F2    CD 0484               	call	bbg		;bury balcones gold
  03F5    29                    	add	hl,hl
  03F6    7C                    	ld	a,h
  03F7    E6 1F                 	and	00011111b	;extract row
  03F9    ED 4B FFB0            	ld	bc,(base-1)	;get base screen row in b
  03FD    CD 0446               lind1:	call	smp		;set move parameters
  0400    B8                    	cp	b
  0401    28 10                 	jr	z,lind2		;if last line
  0403    C5                    	push	bc		;b=last line, c=row
  0404    01 0050               	ld	bc,80
                                	ldirs
  0407    ED B0           +     	ldir
  0409    C1                    	pop	bc
  040A    79                    	ld	a,c
  040B    3C                    	inc	a
  040C    FE 18                 	cp	24
  040E    38 ED                 	jr	c,lind1
  0410    AF                    	xor	a		;wrap
  0411    18 EA                 	jr	lind1		;move next line
  0413    EB                    lind2:	ex	de,hl
  0414    CD 03B6               lind3:	call	clrlin
  0417    E1                    	pop	hl		;restore original cursor
  0418    C9                    	ret
                                
                                ;;	linins - Line insert.
                                ;
  0419    E5                    linins:	push	hl		;save cursor position
  041A    3E 17                 	ld	a,23		;get bottom line
  041C    CD F31E               	call	cca		;compute cursor address
  041F    CD 0484               	call	bbg		;bury balcones gold
  0422    E1                    	pop	hl
Balcones Operating System for the XEROX 820-II	MACRO-80 3.44	09-Dec-81	PAGE	1-40
Rom-resident Crt Driver

  0423    E5                    	push	hl
  0424    29                    	add	hl,hl
  0425    7C                    	ld	a,h
  0426    E6 1F                 	and	00011111b	;extract cursor row
  0428    47                    	ld	b,a
  0429    3A FFB1               	ld	a,(base)	;set last line
  042C    B8                    lini1:	cp	b
  042D    28 13                 	jr	z,lini3		;if move complete
  042F    3D                    	dec	a
  0430    F2 0435               	jp	p,lini2
  0433    3E 17                 	ld	a,23
  0435    CD 0446               lini2:	call	smp		;set move parameters
  0438    EB                    	ex	de,hl
  0439    C5                    	push	bc
  043A    01 0050               	ld	bc,80
                                	ldirs
  043D    ED B0           +     	ldir
  043F    C1                    	pop	bc
                                	if	ldirsm
                                	ld	a,c
                                	endif
  0440    18 EA                 	jr	lini1		;move next line
  0442    E1                    lini3:	pop	hl
  0443    E5                    	push	hl		;restore cursor
  0444    18 CE                 	jr	lind3		;clear cursor line
                                
                                ;;	smp - Set move parameters.
                                ;
  0446    4F                    smp:	ld	c,a		;save row
                                	if	0
                                	ld	l,0
                                	ld	e,l
                                	add	a,crtbas shl 1	;set screen address
                                	ld	d,a
                                	rr	d
                                	rr	e		;destination address
                                	inc	a		;advance row
                                	ld	h,a
                                	rr	h
                                	rr	l
                                	cp	crtbas*2+24
                                	jr	nz,smp2		;if not on last line
                                	ld	h,crtbas
                                smp2:
                                	else
  0447    CD F324               	call	cca2
  044A    EB                    	ex	de,hl
  044B    79                    	ld	a,c
  044C    CD F323               	call	cca1
                                	endif
  044F    79                    	ld	a,c
  0450    C9                    	ret
                                
                                ;;	chrins - Character insert.
                                ;
  0451    E5                    chrins:	push	hl
Balcones Operating System for the XEROX 820-II	MACRO-80 3.44	09-Dec-81	PAGE	1-41
Rom-resident Crt Driver

  0452    7D                    	ld	a,l		;set cursor column
  0453    E6 7F                 	and	01111111b	;set move length = 79-column
  0455    ED 44                 	neg
  0457    C6 4F                 	add	a,79
  0459    47                    	ld	b,a		;number of chars to move
  045A    7E                    	ld	a,(hl)		;get char under cursor
  045B    36 20                 	ld	(hl),' '	;clear char under cursor
  045D    28 06                 	jr	z,chrin2	;if cursor in last column
  045F    2C                    chrin1:	inc	l
  0460    4E                    	ld	c,(hl)
  0461    77                    	ld	(hl),a
  0462    79                    	ld	a,c
  0463    10 FA                 	djnz	chrin1
  0465    32 F319               chrin2:	ld	(gold),a	;shift line into the gold mine
  0468    E1                    	pop	hl
  0469    C9                    	ret
                                
                                ;;	chrdel - Character delete.
                                ;
  046A    E5                    chrdel:	push	hl
  046B    7D                    	ld	a,l
  046C    E6 7F                 	and	01111111b	;isolate cursor column
  046E    ED 44                 	neg
  0470    C6 4F                 	add	a,79
  0472    4F                    	ld	c,a		;number of chars to move = 79-column
  0473    06 00                 	ld	b,0
  0475    54                    	ld	d,h
  0476    5D                    	ld	e,l
  0477    1A                    	ld	a,(de)
  0478    32 F319               	ld	(gold),a	;mine balcones gold
  047B    23                    	inc	hl
                                	if	ldirsm
                                	call	nz,simldir	;if cursor not in last column
                                	else
  047C    C4 048D               	call	nz,ldirx
                                	endif
  047F    EB                    	ex	de,hl
  0480    36 20                 	ld	(hl),' '	;blank last char on line
  0482    E1                    	pop	hl		;restore cursor
  0483    C9                    	ret
                                
                                ;;	bbg - bury balcones gold.
                                ;
  0484    CD 0367               bbg:	call	return
  0487    11 FF5C               	ld	de,linbuf	;balcones diamonds are forever
  048A    01 0050               	ld	bc,80
  048D    ED B0                 ldirx:	ldir
  048F    C9                    	ret
                                
  0490    DD 21 04AA            lpkinf:	ld	ix,lpktab		;IX - address of low profile kbd
  0494    01 0014               	ld	bc,ndlpktb-lpktab	;BC - table size
  0497    18 10                 	jr	retinf			;Return interface values
  0499    21 04C0               moninf:	ld	hl,xmon			;HL - address of monitor ext
  049C    DD 21 04BE            	ld	ix,xmondes		;IX - where dest of monitor ext
  04A0    DD 5E 00              	ld	e,(ix)			;DE - dest of monitor ext
  04A3    DD 56 01              	ld	d,(ix+1)
Balcones Operating System for the XEROX 820-II	MACRO-80 3.44	09-Dec-81	PAGE	1-42
Rom-resident Crt Driver

  04A6    01 000F               	ld	bc,ndxmon-xmon		;BC - table size
  04A9    C9                    retinf:	ret
                                
  04AA    F091                  lpktab:	dw	confg			;Configuration byte 
  04AC    FAE2                  	dw	lpk3			;CMDTAB patch to jump to RXBOOT
  04AE    FAF8                          dw	lpk4			;save as above
  04B0    F14A                  	dw	lpk2 			;KEYSRV patch to jump to lpkybd
  04B2    118C                  	dw	lpk6-cloc+start		;for monitor level prompt
  04B4    FF3C                  	dw	availb			;next RAM available byte
  04B6    1274                  	dw	boot			;ROM address of BOOT overlay
  04B8    F30F                  	dw	lpk5			;FASTCRT patch to call RXCRT
  04BA    F0F8                  	dw	sioout 			;SIOOUT patch to call RXSIOO
  04BC    F22F                  	dw	lpk7			;MILLI patch to call SCRPRT
  04BE                          ndlpktb	equ	$
  04BE    F06C                  xmondes:dw	lpk1			;Dest of monitor table extensions
  04C0    C3 F06C               xmon:	jp	lpk1			;Monitor table extensions
  04C3    C3 F167               	jp	key2
  04C6    C3 F18F               	jp	key5
  04C9    C3 FC45               	jp	pnext
  04CC    C3 FA9D               	jp	prmpt0
  04CF                          ndxmon	equ	$
                                
                                	subttl	Logical to Physical Driver Executioner
                                	page
Balcones Operating System for the XEROX 820-II	MACRO-80 3.44	09-Dec-81	PAGE	1-43
Logical to Physical Driver Executioner

                                
                                	above			;code goes in ram
  05CC!                   +     	d&seg
                                
                                ;;	Xqdvr - Execute Physical Driver.
                                ;
                                ;	Entry:	HL = Pointer to Physical Drive Request Block
                                ;
                                ;	Exit:	See Physical Driver
                                ;
  F344    23                    xqdvr:	inc	hl		;point at physical unit
  F345    E5                    	push	hl
  F346    23                    	inc	hl
  F347    5E                    	ld	e,(hl)		;set logical drive
  F348    21 F360               	ld	hl,Seltab	;Set driver mapping table address
  F34B    16 00                 	ld	d,0
  F34D    19                    	add	hl,de		;index into driver select table
  F34E    19                    	add	hl,de
  F34F    5E                    	ld	e,(hl)		;set physical driver index
  F350    23                    	inc	hl
  F351    7E                    	ld	a,(hl)		;set physical unit
  F352    21 F380               	ld	hl,Dvrtab	;set Driver table address
  F355    19                    	add	hl,de
  F356    19                    	add	hl,de
  F357    5E                    	ld	e,(hl)		;set physical driver address
  F358    23                    	inc	hl
  F359    56                    	ld	d,(hl)
  F35A    E1                    	pop	hl		;recover request block address
  F35B    77                    	ld	(hl),a		;store physical unit
  F35C    2B                    	dec	hl
  F35D    D5                    	push	de		;execute physical driver
  F35E    C9                    	ret
                                
                                	subttl	Physical Disk Driver Area
                                	page
Balcones Operating System for the XEROX 820-II	MACRO-80 3.44	09-Dec-81	PAGE	1-44
Physical Disk Driver Area

                                
                                ;;	Physical Disk Driver Area.
                                ;
                                ;	1.25k of space is reserved here for the Physical Disk Drivers.
                                ;	These drivers are assembled separately and included prior
                                ;	to ROM production.
                                ;
                                	above
  035F"                   +     	d&seg
                                
                                ;;	Waste space to get drivers on page boundry.
                                ;
  F35F                          Wasted:
  000F                          bndry	equ	0fh
                                	if	($ and bndry) ne 0
  F35F                          	defs	bndry+1-($ and bndry),-1
                                	endif
                                
  F360    53 65 6C 74           Seltab:	defm	'Seltab and Physical Drivers Here'
  F364    61 62 20 61           
  F368    6E 64 20 50           
  F36C    68 79 73 69           
  F370    63 61 6C 20           
  F374    44 72 69 76           
  F378    65 72 73 20           
  F37C    48 65 72 65           
                                
  F380                          	defs	32-($-Seltab),0	;Drive Select Mapping Table goes here
                                
  F380                          Dvrtab:	rept	8		;Physical Driver Address Table goes here
                                	defw	selerr
                                	endm
  F380    FA08            +     	defw	selerr
  F382    FA08            +     	defw	selerr
  F384    FA08            +     	defw	selerr
  F386    FA08            +     	defw	selerr
  F388    FA08            +     	defw	selerr
  F38A    FA08            +     	defw	selerr
  F38C    FA08            +     	defw	selerr
  F38E    FA08            +     	defw	selerr
                                
  F390                          Dskdvr:
                                
  0298                          Wd17dl	equ	298h
  0300                          Sasidl	equ	300h
                                
  F470                          fivdpb	equ	$+8*16+26+6+4*16
  F708                          rigdpb	equ	fivdpb+Wd17dl
  F770                          iobloc	equ	fivdpb+Sasidl
                                
                                	if	options and o.ddvr
  F390                          	defs	fivdpb-dskdvr+wd17dl+sasidl,-1	;Disk Drivers here
                                	endif
                                
  FA08                          Dvrlmt:				;disk driver limit
Balcones Operating System for the XEROX 820-II	MACRO-80 3.44	09-Dec-81	PAGE	1-45
Physical Disk Driver Area

                                
  FA08                          rqtop	equ	$		;set required top of resident monitor
                                
  FA08    21 0000               selerr:	ld	hl,0
  FA0B    F6 FF                 	or	-1
  FA0D    C9                    	ret
                                
                                	subttl	820 Style Disk Driver Emulator
                                	page
Balcones Operating System for the XEROX 820-II	MACRO-80 3.44	09-Dec-81	PAGE	1-46
820 Style Disk Driver Emulator

                                
                                ;;	820 Style Disk Driver Emulator.
                                ;
                                	above			;generate code in ram
  0A0E"                   +     	d&seg
                                
  FA0E    FF                    phycmd:	defb	-1		;physical Driver Command
  FA0F    FF                    phyunt:	defb	-1		;physical unit
  FA10    00                    phydrv:	defb	00		;logical unit
  FA11    0000                  phytrk:	defw	00		;track
  FA13    0001                  physec:	defw	01		;sector
  FA15    ED80                  phydma:	defw	bootbf		;dma address
                                
                                ;;	Select - Select Unit for I/O.
                                ;
                                ;	Entry:	C  = Unit
                                ;	Exit:	A  = 0  if no errors
                                ;		A  = -1 if errors
                                ;
                                ;	Select is documented as not switching units if the new unit
                                ;	is not ready.  This is not a very good idea.  This driver
                                ;	does remember the new unit, so that a seek/read/write will fail.
                                ;
  FA17    79                    select:	ld	a,c		;set drive selected
  FA18    FE 08                 	cp	8
  FA1A    30 1D                 	jr	nc,sel1
  FA1C    32 FA10               	ld	(phydrv),a	;save logical CP/M drive
  FA1F    21 FA5A               	ld	hl,seltbl	;set select table address
  FA22    06 00                 	ld	b,0
  FA24    09                    	add	hl,bc		;index into select table
  FA25    7E                    	ld	a,(hl)
  FA26    B7                    	or	a
  FA27    EB                    	ex	de,hl
  FA28    67                    	ld	h,a		;in case previous select worked, say no dph
  FA29    6F                    	ld	l,a		;to internal routines
  FA2A    C8                    	ret	z		;if drive has already been selected
  FA2B    D5                    	push	de		;save table address
  FA2C    06 FF                 	ld	b,-1		;set Select operation
  FA2E    CD FA51               	call	xqphys		;execute physical driver
  FA31    7D                    	ld	a,l		;get returned dph address
  FA32    B4                    	or	h
  FA33    D1                    	pop	de		;retrieve select table address
  FA34    28 03                 	jr	z,sel1		;if select unsuccessful
  FA36    AF                    	xor	a		;return no errors
  FA37    12                    	ld	(de),a		;prevent more density re-selects
  FA38    C9                    	ret
  FA39    F6 FF                 sel1:	or	-1		;return error
  FA3B    C9                    	ret
                                
                                ;;	Home - Position to track zero.
                                ;
  FA3C    0E 00                 home:	ld	c,0		;force track zero
                                
                                ;;	Seek - Seek Track.
                                ;
Balcones Operating System for the XEROX 820-II	MACRO-80 3.44	09-Dec-81	PAGE	1-47
820 Style Disk Driver Emulator

                                ;	Entry:	C  = Track to read/write from next
                                ;
  FA3E    79                    seek:	ld	a,c
  FA3F    32 FA11               	ld	(phytrk),a
  FA42    AF                    	xor	a		;return no errors
  FA43    C9                    	ret
                                
                                ;;	Write - Write Physical Sector.
                                ;
  FA44    06 00                 write:	ld	b,0		;set Write operation
  FA46    18 02                 	jr	rdwr
                                
                                ;;	Read - Read Physical Sector.
                                ;
  FA48    06 01                 read:	ld	b,1		;set read operation
                                
                                ;;	Rdwr - Read/Write Processor.
                                ;
                                ;	Entry:	C  = Sector
                                ;		HL = Transfer Address
                                ;	Exit:	A  = 0 if no errors
                                ;		A  = -1 if errors
                                ;
  FA4A    79                    rdwr:	ld	a,c
  FA4B    32 FA13               	ld	(physec),a	;set physical sector
  FA4E    22 FA15               	ld	(phydma),hl	;set transfer address
                                
                                ;;	xqphys - Internal Execute Physical Driver.
                                ;
                                ;	Entry:	B  = -1 for Select
                                ;		B  =  0 for Write
                                ;		B  =  1 for Read
                                ;
  FA51    21 FA0E               xqphys:	ld	hl,phycmd	;point to physical command block
  FA54    70                    	ld	(hl),b		;store operation
  FA55    CD F344               	call	xqdvr		;execute driver
  FA58    B7                    	or	a		;set flags
  FA59    C9                    	ret
                                
                                ;;	Emulator Disk I/O Ram.
                                ;
  FA5A    FF FF FF FF           seltbl:	defb	-1,-1,-1,-1	;drive already selected table
  FA5E    FF FF FF FF           	defb	-1,-1,-1,-1
                                
                                	subttl	Command processor
                                	page
Balcones Operating System for the XEROX 820-II	MACRO-80 3.44	09-Dec-81	PAGE	1-48
Command processor

                                
                                	above			;put code upstairs
  0A62"                   +     	d&seg
                                
                                ;;	prompt1 user for command.
                                ;
  FA62                          prompt:
                                ;rev 4.02 - DTR cleared on every entry to prompt
  FA62    3E 05                 	ld	a,5		; rev 4.02 select register #5
  FA64    D3 06                 	out	(siocpa),a	; rev 4.02 SIO comms channel
                                ;**	ld	a,00101010b	; rev 4.02 no DTR, 7 bits/tx char, Tx enb,RTS
  FA66    3E 28                 	ld	a,00101000b	; rev 4.03 no DTR,7bit/tx char,Tx enb,no RTS
  FA68    D3 06                 	out	(siocpa),a	; rev 4.02 SIO comms channel
  FA6A    FB                    	ei
  FA6B    31 0000               	ld	sp,stack	;reset system stack
  FA6E    CD FC45               	call	pnext
  FA71    0D 0A                 	defb	cr,lf
  FA73    2A 20                 	defm	'* '
  FA75    04                    	defb	eot
  FA76    21 FF5C               	ld	hl,linbuf
  FA79    0E 50                 	ld	c,80		;buffer of 80 chars (ver. 2.0)
  FA7B    CD FB3F               	call	getlin		;input a bufered console line
  FA7E    38 51                 	jr	c,what		;print 'what ?' if input error
  FA80    3A FF5C               autobt:	ld	a,(linbuf)	;get first character in line
  FA83    FE 0D                 	cp	cr
  FA85    28 DB                 	jr	z,prompt	;jump if a null line
  FA87    D6 40                 	sub	'@'
  FA89    FE 1B                 	cp	'Z'-'@'+1
  FA8B    30 44                 	jr	nc,what		;if not letter
  FA8D    87                    	add	a,a
  FA8E    4F                    	ld	c,a
  FA8F    06 00                 	ld	b,0
  FA91    21 FAE1               	ld	hl,cmdtab+1	;index command table with character
  FA94    09                    	add	hl,bc
  FA95    7E                    	ld	a,(hl)
  FA96    2B                    	dec	hl
  FA97    6E                    	ld	l,(hl)		;get address of command processor
  FA98    67                    	ld	h,a
  FA99    E6 80                 	and	80h
  FA9B    20 17                 	jr	nz,prmt1	;if resident command
  FA9D    11 FC52               prmpt0:	ld	de,cloc		;move transient command to RAM area
  FAA0    D5                    	push	de
  FAA1    01 02A2               	ld	bc,tpamax	;set length of largest transient
  FAA4    F3                    	di
  FAA5    DB 1C                 	in	a,(syspio)
  FAA7    B7                    	or	a
  FAA8    F5                    	push	af
  FAA9    F4 F29C               	call	p,crton		;enable rom if disabled
  FAAC    ED B0                 	ldir
  FAAE    F1                    	pop	af
  FAAF    F4 F293               	call	p,crtoff	;disable rom if enabled
  FAB2    FB                    	ei
  FAB3    E1                    	pop	hl		;set execution address
  FAB4    E5                    prmt1:	push	hl
  FAB5    CD FC3E               	call	crlf
Balcones Operating System for the XEROX 820-II	MACRO-80 3.44	09-Dec-81	PAGE	1-49
Command processor

  FAB8    FD 21 FF5D            	ld	iy,linbuf+1
  FABC    CD FB67               	call	params		;input numeric parameters from
  FABF    DD E1                 	pop	ix		;line buffer and test if error
  FAC1    2A FFB5               	ld	hl,(param1)
  FAC4    ED 5B FFB7            	ld	de,(param2)
  FAC8    ED 4B FFB9            	ld	bc,(param3)
  FACC    CD FADE               	call	jpix		;call subroutine @ ix
  FACF    30 91                 	jr	nc,prompt	;go back to prompt if no errors
                                
  FAD1    CD FC45               what:	call	pnext
  FAD4    20 77 68 61           	defm	' what?'
  FAD8    74 3F                 
  FADA    07                    	defb	'G'-64		;say 'what ?' and squeal
  FADB    04                    	defb	eot
                                
  FADC    18 84                 	jr	prompt
                                
  FADE    DD E9                 jpix:	jp	(ix)		;call subroutine @ ix
                                
  FAE0    FAD1                  cmdtab:	defw	help		;@ - Help user
  FAE2    1274                  lpk3:	defw    boot            ;a - boot cp/m
  FAE4    141A                  	defw	baud		;b - bit rate
  FAE6    FAD1                  	defw	block		;c - memory block move
  FAE8    13B9                  	defw	memdmp		;d - dump memory in hex/ascii
  FAEA    13DC                  	defw	view		;e - enter memory
  FAEC    14B3                  	defw	fill		;f - fill memory
  FAEE    FAD1                  	defw	goto		;g - goto program
  FAF0    154A                  	defw	term		;h - host terminal
  FAF2    1482                  	defw	incmd		;i - read from input port
  FAF4    FAD1                  	defw	what		;j - not used
  FAF6    FAD1                  	defw	what		;k - not used
  FAF8    1274                  lpk4:	defw	boot		;l - load system
  FAFA    13DC                  	defw	view		;m - memory examine/change
  FAFC    FAD1                  	defw	what		;n - not used
  FAFE    14A9                  	defw	outcmd		;o - write to output port
  FB00    14C1                  	defw	proto		;p - printer protocol
  FB02    FAD1                  	defw	what		;q - not used
  FB04    142E                  	defw	dskcmd		;r - display disk sector data
  FB06    FAD1                  	defw	what		;s - not used
  FB08    14DF                  	defw	type		;t - typewriter mode
  FB0A    FAD1                  	defw	what		;u - not used
  FB0C    FAD1                  	defw	vercmd		;v - memory block compare
  FB0E    142E                  	defw	dskcmd		;w - disc sector write command
  FB10    FAD1                  	defw	test		;x - ram diagnostic
  FB12    FAD1                  	defw	what		;y - not used
  FB14    FAD1                  	defw	what		;z - not used
  0036                          cmdsiz	equ	$-cmdtab
                                
  FB16    BE                    check:	cp	(hl)
  FB17    C8                    	ret	z		;return if (hl)=a
  FB18    F5                    	push	af
  FB19    CD FB2A               	call	mdata		;print what was actually read
  FB1C    CD FC45               	call	pnext
  FB1F    73 68 6F 75           	defm	'should='
  FB23    6C 64 3D              
  FB26    04                    	defb	eot
Balcones Operating System for the XEROX 820-II	MACRO-80 3.44	09-Dec-81	PAGE	1-50
Command processor

  FB27    F1                    	pop	af
  FB28    18 07                 	jr	put2j
                                
  FB2A    CD FC3E               mdata:	call	crlf
  FB2D    CD FC1E               	call	put4hs
  FB30    7E                    	ld	a,(hl)
  FB31    C3 FC23               put2j:	jp	put2hs
                                
                                
                                	subttl	Console support routines
                                	page
Balcones Operating System for the XEROX 820-II	MACRO-80 3.44	09-Dec-81	PAGE	1-51
Console support routines

                                
                                ;;	getlin - read line into buffer.
                                ;
  FB34    3E 40                 gethlp:	ld	a,'@'
  FB36    32 FF5C               	ld	(linbuf),a
  FB39    3E 0D                 	ld	a,cr
  FB3B    32 FF5D               	ld	(linbuf+1),a
  FB3E    C9                    	ret
  FB3F    41                    getlin:	ld	b,c		;save max line length parameter in b
  FB40    CD FC2F               glin1:	call	echo		;get a character from the console
  FB43    FE 1E                 	cp	Helpkey
  FB45    28 ED                 	jr	z,gethlp	;if user needs help
  FB47    77                    	ld	(hl),a
  FB48    FE 0D                 	cp	cr		;check for carriage return
  FB4A    C8                    	ret	z		;if end of line
  FB4B    FE 08                 	cp	'H'-64		;check for ctl-h backspace
  FB4D    28 09                 	jr	z,glin4
  FB4F    FE 20                 	cp	' '
  FB51    D8                    	ret	c		;other control characters are illegal
  FB52    23                    	inc	hl		;store character in buffer
  FB53    0D                    	dec	c
  FB54    20 EA                 	jr	nz,glin1	;get another if there's more room
  FB56    37                    	scf
  FB57    C9                    	ret			;return with carry=1 if too
                                				;many characters are entered
  FB58    2B                    glin4:	dec	hl		;delete last character from buffer
  FB59    CD FC45               	call	pnext
  FB5C    20 08                 	defb	' ','H'-64	;delete character from screen
  FB5E    04                    	defb	eot
  FB5F    0C                    	inc	c
  FB60    78                    	ld	a,b		;set max line length
  FB61    91                    	sub	c
  FB62    30 DC                 	jr	nc,glin1	;if backspace not past the start of the line
  FB64    C9                    	ret
                                
  FB65    FD 23                 para0:	inc	iy		;advance character scan
  FB67    01 00FF               params:	ld	bc,low -1	;set parameter index
  FB6A    FD 7E 00              	ld	a,(iy+0)	;fetch character
  FB6D    D6 0D                 	sub	cr
  FB6F    C8                    	ret	z		;if no parameters
  FB70    D6 13                 	sub	' '-cr
  FB72    28 F1                 	jr	z,para0		;if leading blanks
  FB74    0C                    para1:	inc	c		;advance parameter index
  FB75    CB 51                 	bit	2,c
  FB77    37                    	scf
  FB78    C0                    	ret	nz		;error if > 4 numbers entered
  FB79    C5                    para2:	push	bc		;save parameter count
  FB7A    CD FBE2               	call	gethex		;read a number from line buffer
  FB7D    C1                    	pop	bc
  FB7E    DD 21 FFB5            para4:	ld	ix,param1	;point to parameter storage area
  FB82    DD 09                 	add	ix,bc		;add parameter count in bc
  FB84    DD 09                 	add	ix,bc
  FB86    DD 75 00              	ld	(ix+0),l
  FB89    DD 74 01              	ld	(ix+1),h	;store data returned from 'GETHEX'
  FB8C    FE 20                 	cp	' '
Balcones Operating System for the XEROX 820-II	MACRO-80 3.44	09-Dec-81	PAGE	1-52
Console support routines

  FB8E    28 E4                 	jr	z,para1		;get another item if space
  FB90    FE 2C                 	cp	','
  FB92    28 E0                 	jr	z,para1		;get another item if comma
  FB94    79                    	ld	a,c		;set parameter count
  FB95    3C                    	inc	a
  FB96    C9                    	ret
                                
                                ;;	dump - dump memory.
                                ;
  FB97    E5                    dump:	push	hl		;save starting address
  FB98    CD FC1E               	call	put4hs		;print starting address in hex
  FB9B    CD FC26               	call	space
  FB9E    06 10                 	ld	b,16
  FBA0    3E 0F                 dump2:	ld	a,16-1		;skip 3 columns on 16 byte boundry
  FBA2    CD FC2B               	call	dmpfmt
  FBA5    3E 07                 	ld	a,8-1		;skip 2 columns on 8 byte boundry
  FBA7    CD FC2B               	call	dmpfmt
  FBAA    3E 03                 	ld	a,4-1		;skip 1 column  on 4 byte boundry
  FBAC    CD FC2B               	call	dmpfmt
  FBAF    7E                    	ld	a,(hl)		;get a data byte @ hl
  FBB0    23                    	inc	hl
  FBB1    CD FC23               	call	put2hs		;print the data in hex
  FBB4    10 EA                 	djnz	dump2		;repeat 16 times
  FBB6    CD FC26               	call	space
  FBB9    E1                    	pop	hl		;restore starting address
  FBBA    06 10                 	ld	b,16
  FBBC    3E 1F                 dump3:	ld	a,1fh		;force next character
  FBBE    CD F00C               	call	conout
  FBC1    7E                    	ld	a,(hl)		;get back data byte @ hl
  FBC2    23                    	inc	hl
  FBC3    CD F00C               	call	conout		;print ascii character in a
  FBC6    10 F4                 	djnz	dump3
  FBC8    CD F006               	call	const		;check console status
  FBCB    28 0C                 	jr	z,dump4		;if char not ready
  FBCD    CD F009               	call	conin		;read char
  FBD0    FE 0D                 	cp	cr
  FBD2    C8                    	ret	z		;if user abort
  FBD3    CD F009               	call	conin		;pause while user examines display
  FBD6    FE 0D                 	cp	cr
  FBD8    C8                    	ret	z		;if user found it
  FBD9    CD FC3E               dump4:	call	crlf		;send end of line
  FBDC    1B                    	dec	de
  FBDD    7A                    	ld	a,d
  FBDE    B3                    	or	e
  FBDF    20 B6                 	jr	nz,dump		;if dump not complete
  FBE1    C9                    	ret
                                
                                ;;	gethex converts ascii to binary.
                                ;
                                ;	carry set on illegal conversion result
                                ;	terminating character returns in a.
                                ;	hl returns with 16 bit binary integer
                                ;
  FBE2    21 0000               gethex:	ld	hl,0		;preset result
  FBE5    54                    	ld	d,h
  FBE6    5D                    	ld	e,l
Balcones Operating System for the XEROX 820-II	MACRO-80 3.44	09-Dec-81	PAGE	1-53
Console support routines

  FBE7    29                    gnum1:	add	hl,hl		;multiply result by 16
  FBE8    29                    	add	hl,hl
  FBE9    29                    	add	hl,hl
  FBEA    29                    	add	hl,hl
  FBEB    19                    	add	hl,de		;append next digit
  FBEC    FD 7E 00              gnum3:	ld	a,(iy+0)	;get next character from line buffer
  FBEF    4F                    	ld	c,a
  FBF0    FD 23                 	inc	iy		;advance buffer address
  FBF2    CD FBFB               	call	hexbin		;convert one ascii hex to binary
  FBF5    5F                    	ld	e,a
  FBF6    30 EF                 	jr	nc,gnum1
  FBF8    79                    	ld	a,c		;return first non hex digit
  FBF9    B7                    	or	a
  FBFA    C9                    	ret
                                
                                ;;	hexbin - convert hex to binary.
                                ;
  FBFB    D6 30                 hexbin:	sub	'0'
  FBFD    D8                    	ret	c
  FBFE    FE 0A                 	cp	10
  FC00    3F                    	ccf
  FC01    D0                    	ret	nc
  FC02    D6 07                 	sub	7
  FC04    FE 0A                 	cp	10
  FC06    D8                    	ret	c
  FC07    FE 10                 	cp	16
  FC09    3F                    	ccf
  FC0A    C9                    	ret
                                
  FC0B    F5                    put2hx:	push	af
  FC0C    1F                    	rra
  FC0D    1F                    	rra
  FC0E    1F                    	rra
  FC0F    1F                    	rra
  FC10    CD FC14               	call	putnib
  FC13    F1                    	pop	af
  FC14    E6 0F                 putnib:	and	00001111b
  FC16    C6 90                 	add	a,90h
  FC18    27                    	daa
  FC19    CE 40                 	adc	a,40h
  FC1B    27                    	daa
  FC1C    18 0A                 	jr	output
                                
  FC1E    7C                    put4hs:	ld	a,h
  FC1F    CD FC0B               	call	put2hx
  FC22    7D                    	ld	a,l
  FC23    CD FC0B               put2hs:	call	put2hx
                                
                                ;;	space - output space.
                                ;
  FC26    3E 20                 space:	ld	a,' '		;fall through to output space
                                
  FC28    C3 F00C               output:	jp	conout		;display character
                                
                                ;;	dmpfmt - Dump Command Output Formatter.
                                ;
Balcones Operating System for the XEROX 820-II	MACRO-80 3.44	09-Dec-81	PAGE	1-54
Console support routines

  FC2B    A5                    dmpfmt:	and	l		;check address boundry
  FC2C    C0                    	ret	nz		;if not on boundry
  FC2D    18 F7                 	jr	space		;skip one column
                                
                                ;;	echo - read and echo console character.
                                ;
                                ;	Echo inputs one character from the console
                                ;	device, prints it on the console output and
                                ;	then returns it in the A register in upper case.
                                ;
  FC2F    CD F009               echo:	call	conin		;input a character and echo it
  FC32    FE 1E                 	cp	Helpkey
  FC34    C8                    	ret	z		;do not echo help key
  FC35    CD F00C               	call	conout
  FC38    FE 61                 	cp	'a'
  FC3A    D8                    	ret	c		;if not lower case
  FC3B    D6 20                 	sub	'a'-'A'		;convert lower case to upper case
  FC3D    C9                    	ret
                                
                                ;;	crlf - carriage return-linefeed.
                                ;
  FC3E    CD FC45               crlf:	call	pnext		;print next message
  FC41    0D 0A 04              	defb	cr,lf,eot
  FC44    C9                    	ret
                                
                                ;;	pnext - print message after call.
                                ;
  FC45    E3                    pnext:	ex	(sp),hl		;set message address
  FC46    7E                    	ld	a,(hl)
  FC47    23                    	inc	hl
  FC48    E3                    	ex	(sp),hl		;set return address
  FC49    FE 04                 	cp	eot
  FC4B    C8                    	ret	z
  FC4C    CD F00C               	call	conout
  FC4F    18 F4                 	jr	pnext
                                
                                	if	options and (o.move or o.verf)
                                ;;	set block address for move and verify.
                                ;
                                blocad:	ex	de,hl
                                	or	a		;clear carry
                                	sbc	hl,de		;get diffrence between
                                	ex	de,hl		;hl & de for bytecount
                                	push	de		;exchange de,bc
                                	ld	d,b
                                	ld	e,c
                                	pop	bc
                                	inc	bc		;get count+1 into bc
                                	ret
                                	endif
  FC51    C9                    	ret
                                
                                	subttl	Transient Command Area
                                	page
Balcones Operating System for the XEROX 820-II	MACRO-80 3.44	09-Dec-81	PAGE	1-55
Transient Command Area

                                
  FC52                          cloc	defl	$		;establish overlay execution address
                                
                                	overlay	start
  0C52"                   +     	c&seg
                                
                                ;;	signon - Announce System Ready.
                                ;
  FC52    08                    signon:	ex	af,af'
  FC53    CD F293               	call	crtoff
  FC56    08                    	ex	af,af'
  FC57    28 55                 	jr	z,sign4
  FC59    21 F091               	ld	hl,confg
  FC5C    7E                    	ld	a,(hl)
  FC5D    CB 57                 	bit	2,a
  FC5F    C2 FCAE               	jp	nz,sign4
  FC62    DB 1C                 	in	a,(syspio)	;get syspio data
  FC64    CB 47                 	bit	0,a
  FC66    28 24                 	jr	z,sign3		;if SASI interface present
  FC68    F3                    	di
  FC69    3E CF                 	ld	a,11001111b	;set Pio B in Bit Mode
  FC6B    D3 1D                 	out	(sysctl),a
  FC6D    3E 38                 	ld	a,00111000b	;turn around d0,1,2
  FC6F    D3 1D                 	out	(sysctl),a
  FC71    D3 1C                 	out	(syspio),a	;drop all drive selects
  FC73    3E D0                 	ld	a,0d0h		;reset wd-1797-02
  FC75    D3 10                 	out	(wd1797),a
  FC77    10 FE                 sign1:	djnz	sign1		;wait 1797 not busy
  FC79    DB 1C                 	in	a,(syspio)
  FC7B    CB 67                 	bit	c.five,a
  FC7D    3E 02                 	ld	a,2		;preset 10 msec step rate
  FC7F    20 04                 	jr	nz,sign2	;if not 5"
  FC81    CB E6                 	set	c.five,(hl)
  FC83    3E 03                 	ld	a,3		;set long step
  FC85    D3 10                 sign2:	out	(wd1797),a	;restore / unload heads
  FC87    32 FF54               	ld	(steprt),a
  FC8A    18 22                 	jr	sign4
  FC8C    08                    sign3:	ex	af,af'		;save status
  FC8D    7E                    	ld	a,(hl)
  FC8E    F6 40                 	or	c.sasi
  FC90    77                    	ld	(hl),a		;set Sasi card installed
  FC91    08                    	ex	af,af'		;restore status
  FC92    21 F708               	ld	hl,Rigdpb	;set address of rigid dpb
  FC95    11 F470               	ld	de,Fivdpb	;set address of 5.25" floppy dpb
  FC98    01 0300               	ld	bc,Sasidl	;set sasi driver length
  FC9B    ED B0                 	ldir			;Move driver dow
  FC9D    E6 02                 	and	2
  FC9F    20 0D                 	jr	nz,sign4	;if not A/E swap
  FCA1    21 F361               	ld	hl,Seltab+1
  FCA4    06 08                 	ld	b,8
  FCA6    7E                    sign3a:	ld	a,(hl)
  FCA7    EE 04                 	xor	4
  FCA9    77                    	ld	(hl),a
  FCAA    23                    	inc	hl
  FCAB    23                    	inc	hl
Balcones Operating System for the XEROX 820-II	MACRO-80 3.44	09-Dec-81	PAGE	1-56
Transient Command Area

  FCAC    10 F8                 	djnz	sign3a
  FCAE    CD FC45               sign4:	call	pnext
  FCB1    1A                    	defb	clrs		;clear screen
                                	if	options and o.esct
  FCB2    1B 38                 	defb	esc,'8'		;set low light as default mode
                                	else
                                	defb	'R'-'@'
                                	endif
                                
  FCB4    58 65 72 6F           	defm	'Xerox  v '
  FCB8    78 20 20 76           
  FCBC    20                    
  FCBD    35 2E 30 30           lpk6:	defb	rev/100+'0','.',(rev mod 100)/10+'0',(rev mod 10)+'0'
  FCC1    20 1F 1C 20           	defm	' ',31,28,' 1982 Xerox Corp'
  FCC5    31 39 38 32           
  FCC9    20 58 65 72           
  FCCD    6F 78 20 43           
  FCD1    6F 72 70              
  FCD4    0D 0A                 	defb	cr,lf
                                
                                	if	options and o.auto
                                	defb	7,eot
                                
                                	ld	b,-1		;select drive A:
                                	call	xqphys		;execute physical driver
                                	ld	a,l
                                	or	h
                                	jr	z,sign5
                                	ld	b,1		;read drive A:
                                	call	xqphys
                                	ld	hl,'L'+cr*256
                                	ld	(linbuf),hl
                                	jp	z,autobt	;if auto booting	
                                
                                sign5:	call	pnext
                                	endif
  FCD6    0A                    	defb	lf
  FCD7    4C 20 2D 20           	defm	'L - Load System'
  FCDB    4C 6F 61 64           
  FCDF    20 53 79 73           
  FCE3    74 65 6D              
  FCE6    0D 0A                 	defb	cr,lf
                                
                                	if	options and o.term
  FCE8    48 20 2D 20           	defm	'H - Host Terminal'
  FCEC    48 6F 73 74           
  FCF0    20 54 65 72           
  FCF4    6D 69 6E 61           
  FCF8    6C                    
  FCF9    0D 0A                 	defb	cr,lf
                                	endif
                                	if	options and o.type
  FCFB    54 20 2D 20           	defm	'T - Typewriter'
  FCFF    54 79 70 65           
  FD03    77 72 69 74           
  FD07    65 72                 
Balcones Operating System for the XEROX 820-II	MACRO-80 3.44	09-Dec-81	PAGE	1-57
Transient Command Area

  FD09    0D 0A                 	defb	cr,lf
                                	endif
  FD0B    07 04                 	defb	7,eot
                                
  FD0D    CD F006               eatme:	call	const
  FD10    CA F003               	jp	z,warm		;go enter monitor
  FD13    CD F009               	call	conin
  FD16    18 F5                 	jr	eatme
                                
                                	subttl	I/O byte Drivers
                                	page
Balcones Operating System for the XEROX 820-II	MACRO-80 3.44	09-Dec-81	PAGE	1-58
I/O byte Drivers

                                
                                	overlay	iobdvr
  00C6'                   +     	c&seg
                                
                                	.dephase
                                	.phase	iobloc
                                
                                ;;	comins - Communications input status.
                                ;
  F770    DB 06                 comins:	in	a,(siocpa)
  F772    0F                    	rrca
  F773    9F                    	sbc	a,a
  F774    C9                    	ret
                                
                                ;;	cominp - Communications input data.
                                ;
  F775    DB 06                 cominp:	in	a,(siocpa)
  F777    0F                    	rrca
  F778    30 FB                 	jr	nc,cominp
  F77A    DB 04                 	in	a,(siodpa)
  F77C    C3 F0E2               	jp	kbmask
                                
                                ;;	comout - Communications output.
                                ;
  F77F    CD F788               comout:	call	comots
  F782    28 FB                 	jr	z,comout
  F784    79                    	ld	a,c
  F785    D3 04                 	out	(siodpa),a
  F787    C9                    	ret
                                
                                ;;	comots - Communications output status.
                                ;
  F788    DB 06                 comots:	in	a,(siocpa)
  F78A    E6 04                 	and	4
  F78C    C8                    	ret	z
  F78D    F6 FF                 	or	-1
  F78F    C9                    	ret
                                
                                ;;	coniob - get console i/o byte.
                                ;
  F790    3A 0003               coniob:	ld	a,(iobyte)
  F793    E6 03                 	and	00000011b
  F795    C9                    	ret
                                
                                ;;	iocono - Console output through iobyte.
                                ;
  F796    CD F790               iocono:	call	coniob
  F799    28 E4                 	jr	z,comout
  F79B    3D                    	dec	a
  F79C    CA F2FE               	jp	z,fastcrt
  F79F    79                    	ld	a,c
  F7A0    C3 F0F8               	jp	sioout
                                
                                ;;	iocons - Console status through iobyte.
                                ;
Balcones Operating System for the XEROX 820-II	MACRO-80 3.44	09-Dec-81	PAGE	1-59
I/O byte Drivers

  F7A3    CD F790               iocons:	call	coniob
  F7A6    28 C8                 	jr	z,comins
  F7A8    3D                    	dec	a
  F7A9    CA F0CD               	jp	z,kbdst
  F7AC    C3 F0E5               	jp	siost
                                
                                ;;	ioconi - Console input through iobyte.
                                ;
  F7AF    CD F790               ioconi:	call	coniob
  F7B2    28 C1                 	jr	z,cominp
  F7B4    3D                    	dec	a
  F7B5    CA F0D8               	jp	z,kbdin
  F7B8    C3 F0F0               	jp	sioin
                                
                                ;;	lstout - List output through iobyte.
                                ;
  F7BB    3A 0003               iolist:	ld	a,(iobyte)
  F7BE    E6 C0                 	and	11000000b
  F7C0    28 BD                 	jr	z,comout
  F7C2    EA F7DC               	jp	pe,pioout
  F7C5    79                    	ld	a,c
  F7C6    FA F0F8               	jp	m,sioout
  F7C9    C3 F2FE               	jp	fastcrt
                                
                                ;;	List output through iobyte
                                ;
  F7CC    3A 0003               iolsts:	ld	a,(iobyte)
  F7CF    E6 C0                 	and	11000000b
  F7D1    28 B5                 	jr	z,comots
  F7D3    EA F7F4               	jp	pe,piosto
  F7D6    FA F105               	jp	m,siordy
  F7D9    F6 FF                 	or	-1
  F7DB    C9                    	ret
                                
                                ;;	Parallel Output Driver.
                                ;
  F7DC    CD F7F4               pioout:	call	piosto
  F7DF    28 FB                 	jr	z,pioout	;if printer not ready
  F7E1    79                    	ld	a,c
  F7E2    D3 08                 	out	(gpioda),a	;load character data
  F7E4    DB 0A                 	in	a,(gpiodb)
  F7E6    CB 97                 	res	p.strb,a	;assert strobe
  F7E8    D3 0A                 	out	(gpiodb),a
  F7EA    CB D7                 	set	p.strb,a	;release stobe
  F7EC    D3 0A                 	out	(gpiodb),a
  F7EE    3E 0A                 	ld	a,10		;delay for ACK
  F7F0    3D                    pio1:	dec	a
  F7F1    20 FD                 	jr	nz,pio1
  F7F3    C9                    	ret	
                                
                                ;;	Parallel Output Status.
                                ;
  F7F4    DB 0A                 piosto:	in	a,(gpiodb)	;read status
  F7F6    2F                    	cpl
  F7F7    E6 10                 	and	1 shl p.rdyo
  F7F9    C8                    	ret	z		;if ready
Balcones Operating System for the XEROX 820-II	MACRO-80 3.44	09-Dec-81	PAGE	1-60
I/O byte Drivers

  F7FA    F6 FF                 	or	-1
  F7FC    C9                    	ret
                                
  008D                          iobdvs	equ	$-iobloc
                                
                                	.dephase
                                	.phase	cloc+iobdvs
                                
                                	subttl	Transient Command Processors
                                	page
Balcones Operating System for the XEROX 820-II	MACRO-80 3.44	09-Dec-81	PAGE	1-61
Transient Command Processors

                                
                                	if	options and o.ddvr
                                ;	-- disk boot loader command --
                                ;
                                	overlay	boot
  0153'                   +     	c&seg
                                
  FC52    21 FF5D               	ld	hl,linbuf+1
  FC55    7E                    boot1:	ld	a,(hl)		;scan command line
  FC56    2C                    	inc	l
  FC57    D6 0D                 	sub	cr
  FC59    28 0B                 	jr	z,boot2		;if no parameter, boot from A:
  FC5B    FE 13                 	cp	' '-cr
  FC5D    28 F6                 	jr	z,boot1		;skip leading blanks
  FC5F    D6 34                 	sub	'A'-cr
  FC61    D8                    	ret	c		;if invalid drive
  FC62    FE 10                 	cp	16
  FC64    3F                    	ccf
  FC65    D8                    	ret	c		;if bad drive
  FC66    4F                    boot2:	ld	c,a		;set boot drive selected
  FC67    C6 41                 	add	a,'A'
  FC69    32 FCEE               	ld	(bootd),a	;set up error message
  FC6C    2E 00                 	ld	l,0		;set A:
  FC6E    C5                    	push	bc
  FC6F    E5                    	push	hl
  FC70    CD FCFF               	call	swap		;switch boot drive with A:
  FC73    21 FCEA               	ld	hl,booter	;set boot error return
  FC76    E5                    	push	hl
  FC77    0E 00                 	ld	c,0		;then boot from A:
  FC79    CD FA17               	call	select
  FC7C    C0                    	ret	nz		;if drive not configured or density error
  FC7D    3E FF                 	ld	a,-1
  FC7F    12                    	ld	(de),a
  FC80    11 000A               	ld	de,10		;set dpb address offset within dph
  FC83    19                    	add	hl,de
  FC84    5E                    	ld	e,(hl)		;set dpb address
  FC85    23                    	inc	hl
  FC86    56                    	ld	d,(hl)
  FC87    CD FA3C               	call	home
                                
                                ;	check for expansion box II
                                
  FC8A    3A F091               	ld	a,(confg)
  FC8D    CB 57                 	bit	c.eb2,a		;** 5.0 check for expansion box II
  FC8F    20 4D                 	jr	nz,eboot	;** 5.0 if expansion box II
                                
  FC91    0E 01                 	ld	c,1		;set sector 1
  FC93    1A                    	ld	a,(de)		;get low sectors per track
  FC94    32 FCD9               	ld	(boots),a	;inform boot loader
  FC97    B7                    	or	a
  FC98    20 0E                 	jr	nz,boot3	;if not rigid
                                
  FC9A    21 000D               boot2a:	ld	hl,13		;set reserved track offset within dpb
  FC9D    19                    	add	hl,de
  FC9E    4E                    	ld	c,(hl)		;get reserved tracks
Balcones Operating System for the XEROX 820-II	MACRO-80 3.44	09-Dec-81	PAGE	1-62
Transient Command Processors

  FC9F    23                    	inc	hl
  FCA0    46                    	ld	b,(hl)
  FCA1    0B                    	dec	bc		;point behind directory
  FCA2    ED 43 FA11            	ld	(phytrk),bc	;do implied seek
  FCA6    0E 00                 	ld	c,0		;set sector zero for rigid
                                
  FCA8    21 ED80               boot3:	ld	hl,bootbf	;point to boot load buffer
  FCAB    CD FA48               	call	read		;read cold start loader
  FCAE    C0                    	ret	nz		;if read error
  FCAF    11 00FF               	ld	de,bootld+128-1	;set boot loader address
  FCB2    21 EDFF               	ld	hl,bootbf+128-1
  FCB5    01 0080               	ld	bc,128
  FCB8    ED B8                 	lddr			;move front half of boot loader to 80h
  FCBA    13                    	inc	de
  FCBB    1A                    	ld	a,(de)		;verify instructions read in
  FCBC    FE E5                 	cp	0e5h
  FCBE    C8                    	ret	z		;if disk has no system
  FCBF    21 F000               	ld	hl,Monitr
  FCC2    22 F004               	ld	(warm+1),hl	;set warm start to reload monitor
  FCC5    CD FD16               	call	lcp		;load configuration parameters
  FCC8    21 11E7               	ld	hl,iobdvr	;load iobyte driver
  FCCB    11 F770               	ld	de,iobloc
  FCCE    01 008D               	ld	bc,iobdvs
  FCD1    AF                    	xor	a
  FCD2    CD F2A3               	call	crtldir
  FCD5    21 0080               	ld	hl,bootld	;set start address
  FCD8    3E 00                 	ld	a,0
  FCD9                          boots	equ	$-1		;sectors per track
  FCDA    11 FA0E               	ld	de,phycmd	;tell boot loader from whence he came
  FCDD    E9                    	jp	(hl)		;execute Boot Loader with return to booter
                                
  FCDE    0E 00                 eboot:	ld	c,0		;** 5.0 set sector 0
  FCE0    1A                    	ld	a,(de)		;** 5.0 get low sectors per track
  FCE1    32 FCD9               	ld	(boots),a	;** 5.0 inform boot loader
  FCE4    FE 35                 	cp	26*2+1		;** 5.0 check for largest floppy disk
                                				;** 5.0 spt capacity (8" DD)
  FCE6    30 B2                 	jr	nc,boot2a	;** 5.0 if rigid disk
                                				;** 5.0 (assume rigid disk
                                				;** 5.0  if larger than largest floppy)
  FCE8    18 BE                 	jr	boot3		;** 5.0 for floppy configurations
                                
                                
                                ;;	Booter - Boot Error Processor.
                                ;
  FCEA    CD FC45               booter:	call	pnext
  FCED    07                    	defb	7
  FCEE    64 3A 20 4C           bootd:	defm	'd: Load error.'
  FCF2    6F 61 64 20           
  FCF6    65 72 72 6F           
  FCFA    72 2E                 
  FCFC    04                    	defb	eot
  FCFD    C1                    	pop	bc		;switch drives back
  FCFE    E1                    	pop	hl
                                
                                ;;	swap - swap logical drives.
                                ;
Balcones Operating System for the XEROX 820-II	MACRO-80 3.44	09-Dec-81	PAGE	1-63
Transient Command Processors

                                ;	Entry:	C = first  drive index, 0-15
                                ;		L = second drive index, 0-15
                                ;
  FCFF    06 00                 swap:	ld	b,0		;clear upper indices
  FD01    60                    	ld	h,b
  FD02    11 F360               	ld	de,seltab	;set select table address
  FD05    29                    	add	hl,hl
  FD06    19                    	add	hl,de
  FD07    EB                    	ex	de,hl		;set second address to DE, get seltab to HL
  FD08    09                    	add	hl,bc
  FD09    09                    	add	hl,bc		;set first address to HL
  FD0A    06 02                 	ld	b,2
  FD0C    4E                    swap1:	ld	c,(hl)		;swap two bytes
  FD0D    1A                    	ld	a,(de)
  FD0E    77                    	ld	(hl),a
  FD0F    79                    	ld	a,c
  FD10    12                    	ld	(de),a
  FD11    23                    	inc	hl
  FD12    13                    	inc	de
  FD13    10 F7                 	djnz	swap1		;if swap not complete
  FD15    C9                    	ret
                                
                                ;;	lcp - load configuration parameters.
                                ;
  FD16    3E 81                 lcp:	ld	a,10000001b	;default i/o byte to CRT: and LPT:
  FD18    32 0003               	ld	(iobyte),a
                                
  FD1B    3A F091               	ld	a,(confg)	;** 5.0 get configuration status
  FD1E    CB 57                 	bit	c.eb2,a		;** 5.0
  FD20    20 6E                 	jr	nz,eb2lcp	;** 5.0 if expansion box II
                                
  FD22    3A FCD9               	ld	a,(boots)	;get boot diskette type
  FD25    B7                    	or	a
  FD26    0E 20                 	ld	c,32
  FD28    21 ED80               	ld	hl,bootbf	;use boot loader buffer
  FD2B    28 08                 	jr	z,lcp1		;if rigid, use system track, sector 32
  FD2D    FE 1B                 	cp	26+1
  FD2F    D8                    	ret	c		;no parameters from single density boots
  FD30    0E 03                 	ld	c,3		;dd configuration comes from track 0, sector 3
  FD32    21 EE00               	ld	hl,bootbf+128	;use second half of boot loader buffer
  FD35    CD FA48               lcp1:	call	read
  FD38    C0                    	ret	nz		;if can't read configuration
  FD39    3A EE00               	ld	a,(bootbf+128)
  FD3C    D6 E5                 	sub	0e5h
  FD3E    C8                    	ret	z
  FD3F    3A EE7B               	ld	a,(z.xonp)	;configure Xon-Xoff
  FD42    B7                    	or	a
  FD43    28 03                 	jr	z,lcp2
  FD45    FE C9                 	cp	0c9h
  FD47    C0                    	ret	nz
  FD48    32 F115               lcp2:	ld	(Xonenb),a
  FD4B    3A EE60               	ld	a,(z.stpr)	;configure step rate
  FD4E    32 FF54               	ld	(steprt),a
  FD51    3A EE5F               	ld	a,(z.scra)	;configure screen attribute
  FD54    32 FD61               	ld	(lcpa),a
  FD57    3A EE62               	ld	a,(z.keym)	;configure keyboard mask
Balcones Operating System for the XEROX 820-II	MACRO-80 3.44	09-Dec-81	PAGE	1-64
Transient Command Processors

  FD5A    32 FD63               	ld	(lcpb),a
  FD5D    CD FC45               	call	pnext
  FD60    1B                    	defb	esc
  FD61    00                    lcpa:	defb	0
  FD62    1B                    	defb	esc
  FD63    00                    lcpb:	defb	0
  FD64    04                    	defb	eot
  FD65    21 EE63               	ld	hl,z.sioA	;configure Sio channels
  FD68    3E 02                 	ld	a,2
  FD6A    46                    lcp3:	ld	b,(hl)		;get number of bytes
  FD6B    23                    	inc	hl
  FD6C    4E                    	ld	c,(hl)		;get port address
  FD6D    23                    	inc	hl
  FD6E    ED B3                 	otir
  FD70    3D                    	dec	a
  FD71    20 F7                 	jr	nz,lcp3
  FD73    3A EE7D               	ld	a,(z.baua)	;configure channel A bit rate
  FD76    D3 00                 	out	(bauda),a
  FD78    3A EE7E               	ld	a,(z.baub)	;configure channel B bit rate
  FD7B    D3 0C                 	out	(baudb),a
  FD7D    3A EE77               	ld	a,(z.siom)	;configure printer ready mask
  FD80    32 F10C               	ld	(siomsk),a
  FD83    3A EE79               	ld	a,(z.siov)	;configure printer ready value
  FD86    32 F10E               	ld	(sioval),a
  FD89    3A EE7F               	ld	a,(z.iobt)	;configure I/O byte
  FD8C    32 0003               	ld	(iobyte),a
  FD8F    C9                    	ret
                                
  FD90    0E 00                 eb2lcp:	ld	c,0		;expansion box II
                                				;configuration comes from track 0, sector 0
  FD92    21 ED80               	ld	hl,bootbf	;use second half of boot loader buffer
  FD95    18 9E                 	jr	lcp1
                                
                                	else
                                boot	equ	what
                                	endif
                                
                                	if	0		;** 5.0 take out to save rom space
                                ;;	-- goto to memory location command --
                                ;
                                	overlay	goto
                                
                                	or	a
                                	scf
                                	ret	z		;if no parameters
                                	push	hl		;set goto address
                                	pop	ix		;ld	ix,hl
                                	ex	de,hl		;set second arg to HL
                                	ld	a,l		;and A
                                	ld	d,b		;set third arg to DE
                                	ld	e,l
                                	ld	bc,(param4)	;set fourth arg to BC
                                	call	jpix
                                	call	put2hs		;print A reg
                                	jp	put4hs
                                	else			;** 5.0
Balcones Operating System for the XEROX 820-II	MACRO-80 3.44	09-Dec-81	PAGE	1-65
Transient Command Processors

  FAD1                          goto	equ	what		;** 5.0
                                	endif			;** 5.0
                                
                                ;;	-- memory dump command --
                                ;
                                	overlay	memdmp
  0298'                   +     	c&seg
                                
  FC52    3D                    	dec	a		;check parameter count
  FC53    28 06                 	jr	z,mdmp2
  FC55    3D                    	dec	a
  FC56    28 08                 	jr	z,mdmp3
  FC58    2A FFBD               mdmp1:	ld	hl,(last)
  FC5B    11 0010               mdmp2:	ld	de,16
  FC5E    18 0E                 	jr	mdmp3b
                                
  FC60    EB                    mdmp3:	ex	de,hl
  FC61    ED 52                 	sbc	hl,de		;derive bytecount for dump range
  FC63    D8                    	ret	c		;if addresses backwards
  FC64    06 04                 	ld	b,4
  FC66    CB 3C                 mdmp3a:	srl	h		;divide bytecount by 16
  FC68    CB 1D                 	rr	l
  FC6A    10 FA                 	djnz	mdmp3a
  FC6C    23                    	inc	hl
  FC6D    EB                    	ex	de,hl
  FC6E    CD FB97               mdmp3b:	call	dump		;dump de*16 bytes strting at hl
  FC71    22 FFBD               	ld	(last),hl
  FC74    C9                    	ret
                                
                                ;	-- memory examine command --
                                ;
                                	overlay	view
  02BB'                   +     	c&seg
                                
  FC52    CD FB2A               view0:	call	mdata
  FC55    CD FC2F               	call	echo
  FC58    FE 0D                 	cp	cr
  FC5A    28 2F                 	jr	z,view4
  FC5C    FE 2D                 	cp	'-'
  FC5E    28 2D                 	jr	z,view5
  FC60    FE 22                 	cp	'"'
  FC62    20 08                 	jr	nz,view1
  FC64    CD F009               	call	conin
  FC67    CD F00C               	call	conout
  FC6A    18 1B                 	jr	view3
  FC6C    CD FBFB               view1:	call	hexbin
  FC6F    3F                    	ccf
  FC70    D0                    	ret	nc
  FC71    4F                    	ld	c,a
  FC72    87                    	add	a,a
  FC73    87                    	add	a,a
  FC74    87                    	add	a,a
  FC75    87                    	add	a,a
  FC76    47                    	ld	b,a
  FC77    CD FC2F               	call	echo
  FC7A    D6 0D                 	sub	cr
Balcones Operating System for the XEROX 820-II	MACRO-80 3.44	09-Dec-81	PAGE	1-66
Transient Command Processors

  FC7C    28 08                 	jr	z,view2
  FC7E    C6 0D                 	add	a,cr
  FC80    CD FBFB               	call	hexbin
  FC83    3F                    	ccf
  FC84    D0                    	ret	nc
  FC85    48                    	ld	c,b
  FC86    81                    view2:	add	a,c
  FC87    77                    view3:	ld	(hl),a
  FC88    CD FB16               	call	check
  FC8B    23                    view4:	inc	hl
  FC8C    23                    	inc	hl
  FC8D    2B                    view5:	dec	hl
  FC8E    18 C2                 	jr	view0
                                
                                	if	options and o.baud
                                ;	-- Baud Rate Command --
                                ;
                                ;	* B<rate> [channel]	;channel may be 0,1 or A/B
                                ;
                                	overlay	baud
  02F9'                   +     	c&seg
                                
  FC52    B7                    	or	a
  FC53    37                    	scf
  FC54    C8                    	ret	z		;if no parameters
  FC55    3D                    	dec	a
  FC56    20 02                 	jr	nz,baud1	;if channel specified
  FC58    1E 01                 	ld	e,1		;set channel 1 (B)
  FC5A    CB 43                 baud1:	bit	0,e		;check port
  FC5C    0E 00                 	ld	c,bauda		;set communications port
  FC5E    28 02                 	jr	z,baud2
  FC60    0E 0C                 	ld	c,baudb		;set printer port
  FC62    ED 69                 baud2:	out	(c),l		;set baud rate
  FC64    AF                    	xor	a
  FC65    C9                    	ret
                                	else
                                baud	equ	what
                                	endif
                                
                                	if	options and o.disk
                                ;;	-- disk sector read/write command --
                                ;
                                ;	* R <unit> <track> <sector> <address>
                                ;	* W <unit> <track> <sector> <address>
                                ;
                                	overlay	dskcmd
  030D'                   +     	c&seg
                                
  FC52    47                    	ld	b,a
  FC53    3A FF5C               	ld	a,(linbuf)
  FC56    D6 57                 	sub	'W'
  FC58    20 0F                 	jr	nz,dsk1
  FC5A    B0                    	or	b
  FC5B    20 07                 	jr	nz,dsk0
  FC5D    AF                    	xor	a
  FC5E    32 FC51               	ld	($-13),a
Balcones Operating System for the XEROX 820-II	MACRO-80 3.44	09-Dec-81	PAGE	1-67
Transient Command Processors

  FC61    C3 FC3E               	jp	crlf
                                
  FC64    3A FC51               dsk0:	ld	a,($-19)
  FC67    B7                    	or	a
  FC68    C0                    	ret	nz
  FC69    78                    dsk1:	ld	a,b
  FC6A    FE 04                 	cp	4		;check parameter count
  FC6C    37                    	scf
  FC6D    C0                    	ret	nz
                                	if	0
                                	ld	c,l		;use first arg as unit#
                                	call	select
                                	jr	nz,dskerr
                                	ld	a,(param2)
                                	ld	c,a		;get track number
                                	call	seek
                                	ld	a,(param3)
                                	ld	c,a		;get sector number
                                dsk2:	ld	hl,(param4)
                                	ld	a,(linbuf)	;get command read or write
                                	cp	'W'
                                	jr	nz,dsk3		;go to read command
                                	call	write
                                	jr	dsk4
                                dsk3:	call	read
                                dsk4:
                                	endif
                                
  FC6E    21 FFB5               	ld	hl,param1	;move parameters to disk command
  FC71    11 FA10               	ld	de,phydrv
  FC74    01 0007               	ld	bc,3*2+1
  FC77    ED A0                 	ldi
  FC79    23                    	inc	hl		;skip upper unit
  FC7A    ED B0                 	ldir
  FC7C    05                    	dec	b		;set select operation
  FC7D    CD FA51               	call	xqphys		;execute physical select
  FC80    7D                    	ld	a,l
  FC81    B4                    	or	h
  FC82    28 16                 	jr	z,dskerr	;if select error
  FC84    06 00                 	ld	b,0		;preset write command
  FC86    3A FF5C               	ld	a,(linbuf)	;get command
  FC89    FE 57                 	cp	'W'
  FC8B    28 01                 	jr	z,dsk3		;if write
  FC8D    04                    	inc	b
  FC8E    CD FA51               dsk3:	call	xqphys		;execute driver
                                
  FC91    2A FFBB               	ld	hl,(param4)
  FC94    11 0010               	ld	de,16		;assume 256-byte sector
  FC97    CA FB97               	jp	z,dump		;dump disk read buffer if no error
                                
  FC9A    CD FC45               dskerr:	call	pnext
  FC9D    44 73 6B 20           	defm	'Dsk Err'
  FCA1    45 72 72              
  FCA4    04                    	defb	eot
  FCA5    C9                    	ret
                                	else	;(not disk options)
Balcones Operating System for the XEROX 820-II	MACRO-80 3.44	09-Dec-81	PAGE	1-68
Transient Command Processors

                                dskcmd	equ	what
                                	endif
                                
                                	if	options and o.inpc
                                ;;	-- read input port command --
                                ;
                                ;	* I <16-bit port address>
                                ;
                                	overlay	incmd
  0361'                   +     	c&seg
                                
  FC52    3D                    	dec	a
  FC53    37                    	scf
  FC54    C0                    	ret	nz		;if not one parameter
  FC55    4D                    	ld	c,l		;set input port
  FC56    44                    	ld	b,h
  FC57    CD FC3E               in1:	call	crlf
  FC5A    79                    	ld	a,c		;display port address
  FC5B    CD FC23               	call	put2hs
  FC5E    ED 78                 in2:	in	a,(c)
  FC60    CD FC23               	call	put2hs
  FC63    CD F009               	call	conin		;read character
  FC66    FE 20                 	cp	' '
  FC68    28 F4                 	jr	z,in2		;read same port again
  FC6A    FE 0D                 	cp	cr
  FC6C    28 06                 	jr	z,in3		;if read next
  FC6E    FE 2D                 	cp	'-'
  FC70    28 04                 	jr	z,in4		;if read previous
  FC72    B7                    	or	a		;clear carry
  FC73    C9                    	ret
  FC74    03                    in3:	inc	bc		;advance to next port
  FC75    03                    	inc	bc
  FC76    0B                    in4:	dec	bc
  FC77    18 DE                 	jr	in1
                                	else
                                incmd	equ	what
                                	endif
                                
                                	if	options and o.outc
                                ;;	-- write to output port command --
                                ;
                                ;	* O <16-bit port address> <8-bit value>
                                ;
                                	overlay	outcmd
  0388'                   +     	c&seg
                                
  FC52    FE 02                 	cp	2		;require two parameters
  FC54    37                    	scf
  FC55    C0                    	ret	nz		;if not 2 parameters
  FC56    4D                    	ld	c,l		;set 16 bit output port address
  FC57    44                    	ld	b,h
  FC58    ED 59                 	out	(c),e		;output to d0-d7 and address to a0-a17
  FC5A    B7                    	or	a
  FC5B    C9                    	ret
                                	else
                                outcmd	equ	what
Balcones Operating System for the XEROX 820-II	MACRO-80 3.44	09-Dec-81	PAGE	1-69
Transient Command Processors

                                	endif
                                
                                	if	options and o.ramt
                                ;;	-- memory read/write diagnostic command --
                                ;
                                ;	* X <first addr> <last addr>
                                ;
                                	overlay	test
                                
                                	cp	2		;check parameter count
                                	scf
                                	ret	nz
                                	inc	de
                                	ld	e,d		;get ending page address into e
                                	ld	d,h		;get starting page address into d
                                	ld	b,0		;initialize pass counter
                                test1:	ld	h,d		;point hl to start of block
                                	ld	l,0
                                test2:	ld	a,l
                                	xor	h		;generate test byte
                                	xor	b
                                	ld	(hl),a		;store byte in ram
                                	inc	hl
                                	ld	a,h
                                	cp	e		;check for end of test block
                                	jr	nz,test2
                                	ld	h,d		;now read back each byte & compare
                                	ld	l,0		;point hl back to start
                                test3:	ld	a,l
                                	xor	h		;re-generate test byte data
                                	xor	b
                                	call	check		;verify memory data still good
                                	ret	nz		;exit if escape request is indicated
                                	inc	hl		; else go on to next byte
                                	ld	a,h
                                	cp	e		;check for end of block
                                	jr	nz,test3
                                	inc	b		;bump pass count
                                	ld	a,'+'
                                	call	output
                                	jr	z,test1		;do another pass if user not unhappy
                                	ret
                                	else
  FAD1                          test	equ	what
                                	endif
                                
                                	if	options and o.fill
                                ;;	-- fill memory with constant command --
                                ;
                                	overlay	fill
  0392'                   +     	c&seg
                                
  FC52    FE 03                 	cp	3		;check if parameter count=3
  FC54    37                    	scf
  FC55    C0                    	ret	nz
  FC56    71                    fill1:	ld	(hl),c
Balcones Operating System for the XEROX 820-II	MACRO-80 3.44	09-Dec-81	PAGE	1-70
Transient Command Processors

  FC57    E5                    	push	hl
  FC58    B7                    	or	a
  FC59    ED 52                 	sbc	hl,de		;compare hl to end address in de
  FC5B    E1                    	pop	hl
  FC5C    23                    	inc	hl		;advance pointer after comparison
  FC5D    38 F7                 	jr	c,fill1
  FC5F    C9                    	ret
                                	else
                                fill	equ	what
                                	endif
                                
                                	if	options and o.move
                                ;;	-- memory block move command --
                                ;
                                	overlay	block
                                
                                	cp	3		;check if parameter count=3
                                	scf
                                	ret	nz
                                	call	blocad
                                	ld	a,c
                                	or	b
                                	ret	z		;exit now if bc=0
                                	ldir
                                	ret
                                	else
  FAD1                          block	equ	what
                                	endif
                                
                                	if	options and o.verf
                                ;;	-- memory block compare command --
                                ;
                                	overlay	vercmd
                                
                                	cp	3		;check if parameter count=3
                                	scf
                                	ret	nz
                                	call	blocad
                                	jr	verf2
                                
                                verf1:	ld	a,(de)
                                	call	check		;compare data @ de and @ hl
                                	ret	nz		;exit if escape request is indicated
                                	inc	hl
                                	inc	de
                                	dec	bc
                                verf2:	ld	a,b
                                	or	c
                                	jr	nz,verf1
                                	ret
                                	else
  FAD1                          vercmd	equ	what
                                	endif
                                
                                	if	options and o.prot
                                ;;	Printer Protocol.
Balcones Operating System for the XEROX 820-II	MACRO-80 3.44	09-Dec-81	PAGE	1-71
Transient Command Processors

                                ;
                                	overlay	proto
  03A0'                   +     	c&seg
                                
  FC52    3D                    	dec	a
  FC53    28 10                 	jr	z,prot1		;if one parameter
  FC55    D6 02                 	sub	2
  FC57    37                    	scf
  FC58    C0                    	ret	nz
  FC59    7B                    	ld	a,e
  FC5A    F6 04                 	or	4
  FC5C    32 F10C               	ld	(siomsk),a
  FC5F    79                    	ld	a,c
  FC60    F6 04                 	or	4
  FC62    32 F10E               	ld	(sioval),a
  FC65    7D                    prot1:	ld	a,l
  FC66    B7                    	or	a
  FC67    3E C9                 	ld	a,0c9h
  FC69    28 01                 	jr	z,prot2
  FC6B    AF                    	xor	a
  FC6C    32 F115               prot2:	ld	(Xonenb),a
  FC6F    C9                    	ret
                                	else
                                proto	equ	what
                                	endif
                                
                                	if	(options and o.type) ne 0
                                ;;	Type - Simple Typewriter.
                                ;
                                	overlay	type
  03BE'                   +     	c&seg
                                
  FC52    B7                    	or	a
  FC53    28 06                 	jr	z,typ0		;if no baud rate
  FC55    3D                    	dec	a
  FC56    37                    	scf
  FC57    C0                    	ret	nz		;if more than one parameter
  FC58    7D                    	ld	a,l
  FC59    D3 0C                 	out	(baudb),a	;set printer baud rate
  FC5B    CD FC45               typ0:	call	pnext
  FC5E    1A                    	defb	clrs
                                	if	(options and o.esct) ne 0
  FC5F    1B 31                 	defb	esc,'1'		;set 8 bit keyboard mode
                                	else
                                	defb	'O'-'@'		;set 8 bit keyboard mode
                                	endif
  FC61    54 79 70 65           	defm	'Typewriter mode.  Touch CTRL+ESC to exit.'
  FC65    77 72 69 74           
  FC69    65 72 20 6D           
  FC6D    6F 64 65 2E           
  FC71    20 20 54 6F           
  FC75    75 63 68 20           
  FC79    43 54 52 4C           
  FC7D    2B 45 53 43           
  FC81    20 74 6F 20           
  FC85    65 78 69 74           
Balcones Operating System for the XEROX 820-II	MACRO-80 3.44	09-Dec-81	PAGE	1-72
Transient Command Processors

  FC89    2E                    
  FC8A    0D 0A 04              	defb	cr,lf,eot
                                
  FC8D    CD F0E5               typ1:	call	siost		;status printer
  FC90    28 0F                 	jr	z,typ2		;if char not ready
  FC92    CD F0F0               	call	sioin		;read character
  FC95    E6 7F                 	and	7fh		;strip parity bit
  FC97    CD F00C               	call	conout
  FC9A    FE 0D                 	cp	cr
  FC9C    3E 0A                 	ld	a,lf
  FC9E    CC F00C               	call	z,conout
  FCA1    CD F006               typ2:	call	const		;status console
  FCA4    28 E7                 	jr	z,typ1		;if user not active
  FCA6    CD F009               	call	conin		;read keyboard
  FCA9    CD F0F8               	call	sioout		;send character to printer
  FCAC    CD F00C               	call	conout		;and screen
  FCAF    FE 0D                 	cp	cr
  FCB1    20 DA                 	jr	nz,typ1		;if not CR
  FCB3    3E 0A                 	ld	a,lf		;send line feed to screen and printer
  FCB5    CD F0F8               	call	sioout
  FCB8    CD F00C               	call	conout
  FCBB    18 D0                 	jr	typ1
                                	else
                                type	equ	what
                                	endif
                                
                                	if	options and o.term
                                ;;	Terminal / Scroll Driver.
                                ;
                                	subttl	Terminal / Screen Manager		
                                	page
Balcones Operating System for the XEROX 820-II	MACRO-80 3.44	09-Dec-81	PAGE	1-73
Terminal / Screen Manager		

                                
                                
                                	overlay	term
  0429'                   +     	c&seg
                                
  000F                          pass8	equ	15
  0016                          inslin	equ	22
  0017                          dellin	equ	23
  001A                          clrchr	equ	26
  001E                          homscr	equ	30
  001F                          force	equ	31
                                
  0081                          kuplin	equ	81h		;Move top line off screen to buffer
  0082                          kdnlin	equ	82h		;Move bottom line off screen to buffer
  00B1                          Rmttog	equ	80h+'1'		;Toggle Remote Echo
  00B2                          Rmtalf	equ	80h+'2'		;Toggle Remote Auto LF after CR
  008A                          Localf	equ	80h+lf		;Toggle Local Auto LF after CR
  00FF                          Typtog	equ	80h+7fh		;Toggle Local Echo
  00AE                          Brkkey	equ	80h+'.'		;Hardware BREAK function
                                
  0007                          s.lecho	equ	7		;local echo
  0006                          s.recho	equ	6		;remote echo
  0005                          s.autol	equ	5		;local auto lf after cr
  0004                          s.autor	equ	4		;remote auto lf after cr
                                
  0100                          Trmbuf	equ	100h
  EE80                          Buftop	equ	Trmbuf+760*80
  EF00                          Siobuf	equ	Monitr-100h
  EF00                          Trmstk	equ	Siobuf
                                
  FC52    FE 02                 	cp	2		;check number of arguments
  FC54    3F                    	ccf
  FC55    D8                    	ret	c		;if more than 1
  FC56    B7                    	or	a
  FC57    20 02                 	jr	nz,term1	;if port specifed
  FC59    2E 00                 	ld	l,0
  FC5B    01 0406               term1:	ld	bc,siocpa+siodpa*256	;preset A channel ports
  FC5E    CB 45                 	bit	0,l
  FC60    28 03                 	jr	z,term2		;if 0/1 or A/B
  FC62    01 0507               	ld	bc,siocpb+siodpb*256	;set B channel ports
  FC65    ED 43 FE7D            term2:	ld	(ports),bc
                                ;rev 4.02 - DTR set on every entry to HOST
  FC69    3E 05                 	ld	a,5		; rev 4.02 select register #5
  FC6B    D3 06                 	out	(siocpa),a	; rev 4.02 SIO comms channel
  FC6D    3E AA                 	ld	a,10101010b	; rev 4.02 DTR, 7 bits/tx char, Tx enb,RTS
  FC6F    D3 06                 	out	(siocpa),a	; rev 4.02 SIO comms channel
  FC71    31 EF00               	ld	sp,trmstk
  FC74    CD FC45               	call	pnext
  FC77    1A                    	db	clrs
                                	if	options and o.esct
  FC78    1B 31                 	db	esc,'1'
                                	else
                                	db	pass8
                                	endif
  FC7A    54 65 72 6D           	db	'Terminal mode.  Touch CTRL+ESC to exit.'
Balcones Operating System for the XEROX 820-II	MACRO-80 3.44	09-Dec-81	PAGE	1-74
Terminal / Screen Manager		

  FC7E    69 6E 61 6C           
  FC82    20 6D 6F 64           
  FC86    65 2E 20 20           
  FC8A    54 6F 75 63           
  FC8E    68 20 43 54           
  FC92    52 4C 2B 45           
  FC96    53 43 20 74           
  FC9A    6F 20 65 78           
  FC9E    69 74 2E              
  FCA1    0D 0A                 	db	cr,lf
  FCA3    04                    	db	eot
                                
  FCA4    FD 21 FEEA            	ld	iy,status	;set pointer to status byte
                                
  FCA8    CD F006               term3:	call	const		;status keyboard
  FCAB    C4 FCB6               	call	nz,pki		;process keyboard input
  FCAE    CD FECD               	call	sioist		;status sio
  FCB1    C4 FD45               	call	nz,prc		;process remote character
  FCB4    18 F2                 	jr	term3		;until user escapes
                                
                                ;;	pki - Process Keyboard Input.
                                ;
  FCB6    3E 00                 pki:	ld	a,0
  FCB7                          brkflg	equ	$-1
  FCB8    B7                    	or	a
  FCB9    C4 FD26               	call	nz,clrbrk	;terminate pending break
  FCBC    CD F009               	call	conin		;read input
  FCBF    CB 7F                 	bit	7,a
  FCC1    20 0B                 	jr	nz,pki1		;if function key
  FCC3    CD FD64               	call	sndrmt		;send it to remote
  FCC6    FD CB 00 7E           	bit	s.lecho,(iy)
  FCCA    C4 FD51               	call	nz,sndloc	;if local echo enabled, display console input
  FCCD    C9                    	ret
  FCCE    FE 81                 pki1:	cp	kuplin
  FCD0    20 12                 	jr	nz,pki2		;if not scroll up
  FCD2    CD FE55               	call	gcp		;get cursor position
  FCD5    CD FC45               	call	pnext		;home screen, then delete top line
                                	if	options and o.esct
  FCD8    1E 1B 52 04           	defb	homscr,esc,'R',eot
                                	else
                                	defb	homscr,dellin,eot
                                	endif
  FCDC    CD FD8E               	call	ltl		;link top line
  FCDF    CD FDF0               	call	dbl		;display bottom line
  FCE2    18 14                 	jr	pki3
  FCE4    FE 82                 pki2:	cp	kdnlin
  FCE6    20 13                 	jr	nz,pki4		;if not scroll down
  FCE8    CD FE55               	call	gcp		;get cursor position
  FCEB    CD FC45               	call	pnext		;home screen, insert blank line
                                	if	options and o.esct
  FCEE    1E 1B 45 04           	defb	homscr,esc,'E',eot
                                	else
                                	defb	homscr,dellin,eot
                                	endif
  FCF2    CD FE10               	call	lbl		;link bottom line
  FCF5    CD FDB6               	call	dtl		;display top line
Balcones Operating System for the XEROX 820-II	MACRO-80 3.44	09-Dec-81	PAGE	1-75
Terminal / Screen Manager		

  FCF8    C3 FE73               pki3:	jp	rcp		;restore cursor position
  FCFB    FE FF                 pki4:	cp	Typtog
  FCFD    20 04                 	jr	nz,pki5
  FCFF    3E 80                 	ld	a,1 shl s.lecho
  FD01    18 16                 	jr	pki8
  FD03    FE B1                 pki5:	cp	Rmttog
  FD05    20 04                 	jr	nz,pki6
  FD07    3E 40                 	ld	a,1 shl s.recho
  FD09    18 0E                 	jr	pki8
  FD0B    FE 8A                 pki6:	cp	Localf
  FD0D    20 04                 	jr	nz,pki7
  FD0F    3E 20                 	ld	a,1 shl s.autol
  FD11    18 06                 	jr	pki8
  FD13    FE B2                 pki7:	cp	Rmtalf
  FD15    20 09                 	jr	nz,pki9
  FD17    3E 10                 	ld	a,1 shl s.autor
  FD19    FD AE 00              pki8:	xor	(iy)
  FD1C    FD 77 00              	ld	(iy),a
  FD1F    C9                    	ret
  FD20    FE AE                 pki9:	cp	Brkkey
  FD22    C0                    	ret	nz
  FD23    3A FCB7               	ld	a,(brkflg)
  FD26    EE FF                 clrbrk:	xor	-1
  FD28    32 FCB7               	ld	(brkflg),a
  FD2B    16 10                 	ld	d,10h		;set line SPACING
  FD2D    20 02                 	jr	nz,setbrk
  FD2F    16 00                 	ld	d,0		;set line MARKING
  FD31    ED 4B FE7D            setbrk:	ld	bc,(ports)
  FD35    3E 05                 	ld	a,5		;set up WR5
  FD37    F3                    	di
  FD38    ED 79                 	out	(c),a
  FD3A    3E AA                 	ld	a,10101010b	;assert DTR, 7 bpc, RTS, Tx Enb
  FD3C    B2                    	or	d
  FD3D    ED 79                 	out	(c),a
  FD3F    FB                    	ei
  FD40    3E FF                 	ld	a,0ffh
  FD42    C3 FE95               	jp	sioot		;send RUBOUT to allow MARKING
                                
                                ;;	prc - Process Remote Character.
                                ;
  FD45    CD FEDB               prc:	call	sioinc		;read remote character
  FD48    FD CB 00 76           	bit	s.recho,(iy)
  FD4C    C4 FD64               	call	nz,sndrmt	;echo it back
  FD4F    18 26                 	jr	doc		;display it locally
                                
                                ;;	sndloc - send character to screen.
                                ;
  FD51    CD FD77               sndloc:	call	doc
  FD54    FE 0D                 	cp	cr
  FD56    C0                    	ret	nz
  FD57    FD CB 00 6E           	bit	s.autol,(iy)
  FD5B    C8                    	ret	z
  FD5C    3E 0A                 	ld	a,lf
  FD5E    CD FD77               	call	doc
  FD61    3E 0D                 	ld	a,cr
  FD63    C9                    	ret
Balcones Operating System for the XEROX 820-II	MACRO-80 3.44	09-Dec-81	PAGE	1-76
Terminal / Screen Manager		

                                
                                ;;	sndrmt - send character to remote.
                                ;
  FD64    CD FE95               sndrmt:	call	sioot
  FD67    FE 0D                 	cp	cr
  FD69    C0                    	ret	nz
  FD6A    FD CB 00 66           	bit	s.autor,(iy)
  FD6E    C8                    	ret	z
  FD6F    3E 0A                 	ld	a,lf
  FD71    CD FE95               	call	sioot
  FD74    3E 0D                 	ld	a,cr
  FD76    C9                    	ret
                                
                                ;;	doc - Display One Character.
                                ;
  FD77    FE 7F                 doc:	cp	7fh
  FD79    C8                    	ret	z		;don't display RUBOUT
  FD7A    4F                    	ld	c,a		;send it to screen
  FD7B    C5                    	push	bc
  FD7C    CD FEA0               	call	outcrt		;display character
  FD7F    C1                    	pop	bc
  FD80    47                    	ld	b,a
  FD81    79                    	ld	a,c
  FD82    FE 0A                 	cp	lf
  FD84    C0                    	ret	nz
  FD85    04                    	inc	b
  FD86    05                    	dec	b
  FD87    C0                    	ret	nz		;if line feed did not scroll
  FD88    CD FD8E               	call	ltl		;link top line
  FD8B    3E 0A                 	ld	a,lf
  FD8D    C9                    	ret
                                
                                ;;	ltl - link top line.
                                ;
  FD8E    21 FF5C               ltl:	ld	hl,linbuf
  FD91    ED 5B FEED            	ld	de,(topptr)	;set address of line above screen
  FD95    01 0050               	ld	bc,80
  FD98    ED B0                 	ldir			;move line
  FD9A    CD FE39               	call	wup		;wrap upper pointer
  FD9D    ED 53 FEED            	ld	(topptr),de	;set new top line address
  FDA1    2A FEEB               	ld	hl,(botptr)
  FDA4    EB                    	ex	de,hl
  FDA5    B7                    	or	a
  FDA6    ED 52                 	sbc	hl,de
  FDA8    C0                    	ret	nz
  FDA9    11 0050               	ld	de,80
  FDAC    19                    	add	hl,de		;advance bottom pointer
  FDAD    EB                    	ex	de,hl
  FDAE    CD FE39               	call	wup		;wrap upper pointer
  FDB1    ED 53 FEEB            	ld	(botptr),de
  FDB5    C9                    	ret
                                
                                ;;	dtl - Display Top Line.
                                ;
  FDB6    ED 5B FEED            dtl:	ld	de,(topptr)	;get line above screen
  FDBA    21 FFB0               	ld	hl,-80
Balcones Operating System for the XEROX 820-II	MACRO-80 3.44	09-Dec-81	PAGE	1-77
Terminal / Screen Manager		

  FDBD    19                    	add	hl,de
  FDBE    CD FE46               	call	wlp		;wrap lower pointer
  FDC1    22 FEED               	ld	(topptr),hl
  FDC4    01 0050               	ld	bc,80
                                
                                ;;	dln - display line.
                                ;
  FDC7    E5                    dln:	push	hl
  FDC8    09                    	add	hl,bc
  FDC9    2B                    	dec	hl
  FDCA    3E 20                 	ld	a,' '
  FDCC    ED A9                 dln1:	cpd
  FDCE    20 03                 	jr	nz,dln2		;if not trailing blank
  FDD0    EA FDCC               	jp	pe,dln1
  FDD3    E1                    dln2:	pop	hl
  FDD4    E0                    	ret	po		;if entire line blank
  FDD5    41                    	ld	b,c
  FDD6    04                    	inc	b
  FDD7    C5                    dln3:	push	bc
  FDD8    7E                    	ld	a,(hl)
  FDD9    4F                    	ld	c,a
  FDDA    FE 20                 	cp	' '
  FDDC    30 08                 	jr	nc,dln4
  FDDE    E5                    	push	hl
  FDDF    0E 1F                 	ld	c,force		;force next character out
  FDE1    CD FEA0               	call	outcrt
  FDE4    E1                    	pop	hl
  FDE5    4E                    	ld	c,(hl)
  FDE6    23                    dln4:	inc	hl		;advance address
  FDE7    E5                    	push	hl
  FDE8    CD FEA0               	call	outcrt		;display character
  FDEB    E1                    	pop	hl
  FDEC    C1                    	pop	bc
  FDED    10 E8                 	djnz	dln3		;if not entire line
  FDEF    C9                    	ret
                                
                                ;;	dbl - Display bottom line.
                                ;
  FDF0    CD FC45               dbl:	call	pnext		;plant cursor on bottom line
  FDF3    1B 3D 37 20           	db	esc,'=',' '+23,' ',eot
  FDF7    04                    
  FDF8    2A FEEB               	ld	hl,(botptr)
  FDFB    E5                    	push	hl
  FDFC    01 004F               	ld	bc,80-1
  FDFF    CD FDC7               	call	dln		;display bottom line
  FE02    E1                    	pop	hl
  FE03    01 0050               	ld	bc,80
  FE06    09                    	add	hl,bc
  FE07    EB                    	ex	de,hl
  FE08    CD FE39               	call	wup
  FE0B    ED 53 FEEB            	ld	(botptr),de
  FE0F    C9                    	ret
                                
                                ;;	lbl - link bottom line.
                                ;
  FE10    01 0050               lbl:	ld	bc,80
Balcones Operating System for the XEROX 820-II	MACRO-80 3.44	09-Dec-81	PAGE	1-78
Terminal / Screen Manager		

  FE13    2A FEEB               	ld	hl,(botptr)
  FE16    B7                    	or	a
  FE17    ED 42                 	sbc	hl,bc
  FE19    CD FE46               	call	wlp
  FE1C    22 FEEB               	ld	(botptr),hl
  FE1F    EB                    	ex	de,hl
  FE20    2A FEED               	ld	hl,(topptr)
  FE23    B7                    	or	a
  FE24    ED 52                 	sbc	hl,de
  FE26    20 0B                 	jr	nz,lbl1
  FE28    2A FEED               	ld	hl,(topptr)
  FE2B    ED 42                 	sbc	hl,bc
  FE2D    CD FE46               	call	wlp
  FE30    22 FEED               	ld	(topptr),hl
  FE33    21 FF5C               lbl1:	ld	hl,linbuf
  FE36    ED B0                 	ldir			;move gold mine to buffer
  FE38    C9                    	ret
                                
                                ;;	wup - Wrap upper pointer.
                                ;
  FE39    E5                    wup:	push	hl
  FE3A    21 EE80               	ld	hl,buftop	;set end of buffer address
  FE3D    37                    	scf
  FE3E    ED 52                 	sbc	hl,de
  FE40    E1                    	pop	hl
  FE41    D0                    	ret	nc		;if not past end of buffer
  FE42    11 0100               	ld	de,Trmbuf	;start over at beggining of buffer
  FE45    C9                    	ret
                                
                                ;;	wlp - Wrap lower pointer.
                                ;
  FE46    E5                    wlp:	push	hl
  FE47    D5                    	push	de
  FE48    11 0100               	ld	de,Trmbuf	;set start of buffer address
  FE4B    B7                    	or	a
  FE4C    ED 52                 	sbc	hl,de
  FE4E    D1                    	pop	de
  FE4F    E1                    	pop	hl
  FE50    D0                    	ret	nc		;if not below start of buffer
  FE51    21 EE30               	ld	hl,buftop-80	;start over at end of buffer
  FE54    C9                    	ret
                                
                                ;;	gcp - get cursor position.
                                ;
  FE55    ED 4B FFB1            gcp:	ld	bc,(base)
  FE59    2A FFAC               	ld	hl,(cursor)
  FE5C    45                    	ld	b,l		;get column to B
  FE5D    CB B8                 	res	7,b
  FE5F    29                    	add	hl,hl		;set screen row to H
  FE60    7C                    	ld	a,h
  FE61    D6 60                 	sub	crtbas*2
  FE63    91                    	sub	c		;row = 23-(base-curh)
  FE64    C6 17                 	add	a,23
  FE66    D6 18                 gcp1:	sub	24
  FE68    30 FC                 	jr	nc,gcp1
  FE6A    4F                    	ld	c,a		;set row
Balcones Operating System for the XEROX 820-II	MACRO-80 3.44	09-Dec-81	PAGE	1-79
Terminal / Screen Manager		

  FE6B    21 1F38               	ld	hl,'  '+24-100h	;offset for <esc>=
  FE6E    09                    	add	hl,bc
  FE6F    22 FE78               	ld	(rcpa),hl
  FE72    C9                    	ret
                                
                                ;;	rcp - Restore cursor position.
                                ;
  FE73    CD FC45               rcp:	call	pnext
  FE76    1B 3D                 	db	esc,'='
  FE78    20 20                 rcpa:	db	'  '
  FE7A    04                    	db	eot
  FE7B    C9                    	ret
                                
                                ;;	sio drivers.
                                ;
  FE7C    01 FE7D               sioins:	ld	bc,ports	;set status port to c
  FE7D                          ports	equ	$-2
  FE7F    ED 78                 	in	a,(c)
  FE81    CB 47                 	bit	0,a		;test rca
  FE83    C9                    	ret
                                
  FE84    CD FE7C               sioinp:	call	sioins		;get status
  FE87    28 FB                 	jr	z,sioinp	;if not ready
  FE89    48                    	ld	c,b		;set data port address
  FE8A    ED 78                 	in	a,(c)
  FE8C    CB BF                 	res	7,a		;pitch parity bit
  FE8E    C9                    	ret
                                
  FE8F    CD FE7C               siordt:	call	sioins		;get sio status
  FE92    CB 57                 	bit	2,a		;test TX empty
  FE94    C9                    	ret
                                
  FE95    08                    sioot:	ex	af,af'		;save char to send
  FE96    CD FE8F               sioot1:	call	siordt		;test transmit ready status
  FE99    28 FB                 	jr	z,sioot1	;if not ready
  FE9B    48                    	ld	c,b
  FE9C    08                    	ex	af,af'
  FE9D    ED 79                 	out	(c),a
  FE9F    C9                    	ret
                                
  FEA0    CD FEAC               outcrt:	call	siopl		;poll for input before & after
  FEA3    CD F2FE               	call	fastcrt
  FEA6    F5                    	push	af		;save balcones gold
  FEA7    CD FEAC               	call	siopl
  FEAA    F1                    	pop	af
  FEAB    C9                    	ret
                                
                                ;;	Siopl - Sio Poll Input Characters.
                                ;
  FEAC    C5                    Siopl:	push	bc
  FEAD    CD FE7C               	call	sioins		;input Sio status
  FEB0    28 19                 	jr	z,siopl3	;if input not ready
  FEB2    48                    	ld	c,b		;set data port address
  FEB3    ED 78                 	in	a,(c)
  FEB5    CB BF                 	res	7,a		;pitch parity bit
  FEB7    E5                    	push	hl
Balcones Operating System for the XEROX 820-II	MACRO-80 3.44	09-Dec-81	PAGE	1-80
Terminal / Screen Manager		

  FEB8    2A FEEF               	ld	hl,(ipoint)	;set in pointer
  FEBB    77                    	ld	(hl),a		;store character in fifo
  FEBC    2C                    	inc	l
  FEBD    20 02                 	jr	nz,siopl1
  FEBF    2E 00                 	ld	l,low siobuf
  FEC1    3A FEF1               siopl1:	ld	a,(opoint)
  FEC4    95                    	sub	l
  FEC5    28 03                 	jr	z,siopl2	;if buffer full
  FEC7    22 FEEF               	ld	(ipoint),hl
  FECA    E1                    siopl2:	pop	hl
  FECB    C1                    siopl3:	pop	bc
  FECC    C9                    	ret
                                
                                ;;	Sioist - Sio Input Status.
                                ;
  FECD    CD FEAC               Sioist:	call	Siopl		;poll for input
  FED0    2A FEF1               	ld	hl,(opoint)	;set out pointer
  FED3    3A FEEF               	ld	a,(ipoint)
  FED6    95                    	sub	l
  FED7    C8                    	ret	z		;if data not ready
  FED8    F6 FF                 	or	-1
  FEDA    C9                    	ret
                                
                                ;;	Sioin - Sio Input Character.
                                ;
  FEDB    CD FECD               Sioinc:	call	Sioist		;set input ready status
  FEDE    28 FB                 	jr	z,Sioinc
  FEE0    7E                    	ld	a,(hl)
  FEE1    2C                    	inc	l		;advance out
  FEE2    20 02                 	jr	nz,Sioi1
  FEE4    2E 00                 	ld	l,low siobuf
  FEE6    22 FEF1               Sioi1:	ld	(opoint),hl
  FEE9    C9                    	ret
                                
  FEEA    00                    status:	db	0
                                
  FEEB    0100                  botptr:	dw	Trmbuf
  FEED    0100                  topptr:	dw	Trmbuf
                                
  FEEF    EF00                  ipoint:	dw	siobuf
  FEF1    EF00                  opoint:	dw	siobuf
                                	else
                                term	equ	what
                                	endif
                                
                                	if	options and o.help
                                
                                ;;	Help Key Command.
                                ;
                                	overlay	help
                                
                                	call	pnext
                                	defb   'Baud		<rate> [B/A]',cr,lf
                                ;	defb   'Copy		<start> <end> <to>',cr,lf
                                	defb   'Dump		[start] [end]',cr,lf
                                ;	defb   'Fill		<start> <end> <data>',cr,lf
Balcones Operating System for the XEROX 820-II	MACRO-80 3.44	09-Dec-81	PAGE	1-81
Terminal / Screen Manager		

                                	defb   'Goto		<addr>',cr,lf
                                ;	defb   'Host terminal	[A/B]',cr,lf
                                ;	defb   'Input		<port>',cr,lf
                                	defb   'Modify		<addr>',cr,lf
                                ;	defb   'Output		<port> <data>',cr,lf
                                	defb   'Protocol	<xon> [msk val]',cr,lf
                                ;	defb   'Read		<unit> <trk> <sect> <addr>',cr,lf
                                ;	defb   'Verify		<start> <end> <with>',cr,lf
                                ;	defb   'Xtended test	<start> <end>',cr,lf,lf
                                	defb	eot
                                	ret
                                	else
  FAD1                          help	equ	what
                                	endif
                                
                                	subttl	Segment Size Information
                                	page
Balcones Operating System for the XEROX 820-II	MACRO-80 3.44	09-Dec-81	PAGE	1-82
Segment Size Information

                                
                                ;;	Top of Overlay Area.
                                ;
                                	overlay	stop
  06CA'                   +     	c&seg
  02A2                          tpamax	equ	tpal+1		;set length of transient move
                                
                                ;;	Top of Resident Monitor.
                                ;
                                	below
  0000!                   +     	defs	comres
  04CF                          rbase	equ	$
                                
                                ;;	Top of Non Resident Monitor.
                                ;
                                	above
  05CC!                   +     	d&seg
  FC52                          restop	equ	$		;resident top
  0C52                          reslen	equ	$-monitr	;length of resident monitor
                                
                                	update			;clear active segment
                                
                                ;;	Top of Burned Rom Set.
                                ;
  17EB                          romtop	equ	bloc+dloc+tloc-monitr
                                
                                ;;	Fill Out Unused Rom Space.
                                ;
  0C52"                         	cseg
                                
                                	if	(rom+romsiz-romtop) gt 0
  06CA'                         	defs	(rom+romsiz-romtop),-1
                                	endif
                                
                                	subttl	Resident Monitor System Ram
                                	page
Balcones Operating System for the XEROX 820-II	MACRO-80 3.44	09-Dec-81	PAGE	1-83
Resident Monitor System Ram

                                
                                	.phase	ram
                                
                                ;;	Start of Documented Storage Locations.
                                ;
  FF00                          vectab:				;interrupt vector table starts here
  FF00                          siovec:	defs	16		;space for 8 vectors for sio
  FF10                          ctcvec:	defs	8		;space for 4 vectors for ctc
  FF18                          sysvec:	defs	4		;space for 2 vectors for system pio
  FF1C                          genvec:	defs	4		;space for 2 vectors for general pio
                                
                                ;;	keyboard data input fifo variables
                                ;
  FF20                          fifo:	defs	16		;console input fifo
  FF30                          fifcnt:	defs	1		;fifo data counter
  FF31                          fifin:	defs	1		;fifi input pointer
  FF32                          fifout:	defs	1		;fifo output pointer
                                
  FF33                          	defs	1		;round address
                                
                                ;;	More interrupt vectors
                                ;
  FF34                          expvec:	defs	8		;space for 4 vectors for expansion slot
                                
                                ;;	Available memory pointers.
                                ;
  FF3C                          availb:	defs	2		;bottom of available memory
  FF3E                          availt:	defs	2		;top of available memory
                                
                                ;
                                ;;	End of documented storage locations.
                                
  FF40                          	defs	16		;local stack for interrupts
  FF50                          intstk:
                                
                                ;;	clock-timer interrupt variables
                                ;
  FF50                          Milsec:	defs	2		;One   Millisecond timer, Enable int on ctc1
  FF52                          tikcnt:	defs	2		;16 bit seconds counter (18 hr, 12 min, 16 sec)
  FF54                          steprt:	defs	1		;WD 1797 step rate
  FF55                          timout:	defs	1		;time-out, decrements once per second
                                ;
                                ;	Getime entry returns the address of DAY
                                ;
  FF56                          day:	defs	1		;calendar day		(01-31)
  FF57                          month:	defs	1		;	  month		(01-12)
  FF58                          year:	defs	1		;	  year-1970	(1970-2225)
  FF59                          hrs:	defs	1		;clock hours		(00-23)
  FF5A                          mins:	defs	1		;      minutes		(00-59)
  FF5B                          secs:	defs	1		;      seconds		(00-59)
                                
                                ;;	crt output driver variables
                                ;
  FF5C                          linbuf:	defs	80		;line buffer & Bcc gold mine
  FFAC                          cursor:	defs	2		;cursor pointer
Balcones Operating System for the XEROX 820-II	MACRO-80 3.44	09-Dec-81	PAGE	1-84
Resident Monitor System Ram

  FFAE                          csrchr:	defs	1		;character used for a cursor
  FFAF                          dircur:	defs	2		;cursor pointer for direct crt display
  FFB1                          base:	defs	1		;current contents of scroll register
  FFB2                          leadin:	defs	1		;state of lead-in sequence handler
  FFB3                          attrib:	defs	1		;attribute enable
  FFB4                          chrsav:	defs	1		;character under cusror
                                
                                ;;	console monitor program variables
                                ;
  FFB5                          param1:	defs	2		;storage for numbers read
  FFB7                          param2:	defs	2		; from line input buffer
  FFB9                          param3:	defs	2		; by 'PARAMS' subroutine
  FFBB                          param4:	defs	2		; for command processors
  FFBD                          last:	defs	2		;last address used by 'MEMDMP'
                                
                                ;;	Configurable parameter address table
                                ;
  FFBF                          contbl:	defs	2*numcon
                                
  FFCB                          spare1:	defs	1		;spare configuration byte
  FFCC                          osboot:	defs	1		;another spare byte
                                
  FFCD                          spare:	defs	(ram+100h-48)-$	;spare ram space
                                
  FFD0                          sparnd:				;end of spare ram
                                
  FFD0                          	defs	16		;crt stack
  FFE0                          crtstk:
                                
  FFE0                          rstsp:	defs	2		;sp register on reset
  FFE2                          rsthl:	defs	2		;hl register on reset
  FFE4                          rstpc:	defs	2		;possible pc from top of stack
                                
  FFE6                          	defs	26		;monitor stack
  0000                          stack:
                                
                                	.dephase
                                
                                	subttl	Console Messages
                                	page
Balcones Operating System for the XEROX 820-II	MACRO-80 3.44	09-Dec-81	PAGE	1-85
Console Messages

                                
                                ;;	Console Message Macros.
                                ;
                                message	macro	text,h1,h2
                                	if1
                                	.radix	16
                                	printx	<text>,%(h1),%(h2-1),%((h2)-(h1))
                                	.radix	10
                                	endif
                                	endm
                                
                                printx	macro	text,h1,h2,h3
                                	.printx + text h1 - h2 = h3 +
                                	endm
                                
                                	if	romtop ge (rom+romsiz)
                                	message	<* The ROM set is TFB *>,rom+romsiz,romtop
                                	endif
                                
                                	if	cloc+tpal gt ram
                                	message	<* The TPA set is TFB *>,ram,cloc+tpal
                                	endif
                                
                                	message	<Non-resident executes >,rom,bloc
                                	message	<Rom is burned up from >,rom,romtop
                                	message	<Unused Rom Space from >,romtop,rom+romsiz-1
                                	message	<Resident Monitor needs>,monitr,rqtop
                                	message	<Space Wasted to Driver>,Wasted,Seltab
                                	message <Physical Disk Drivers >,Seltab,Dvrlmt
                                	message <Driver Offset for ZSID>,200h+bloc+Seltab-Monitr,0
                                	message	<I/O Byte Drivers from >,iobloc,iobloc+iobdvs
                                	message	<Command Processor Area>,rqtop,restop
                                	message	<Transient Overlay ROM >,start,stop
                                	message	<Transient Command Area>,cloc,cloc+tpal
                                	message	<Spare Locations in Ram>,spare,sparnd
                                
                                	subttl	The*End
                                	end	entry
Balcones Operating System for the XEROX 820-II	MACRO-80 3.44	09-Dec-81	PAGE	S
The*End

Macros:
ABOVE           BELOW           BSEG            LDIRS           MESSAGE         
OVERLAY         PRINTX          SEGMENT         SERVICE         UPDATE          

Symbols:
009B 	ABORT           0068 	ASYNC           FFB3 	ATTRIB          
FA80 	AUTOBT          FF3C 	AVAILB          FF3E 	AVAILT          
0343 	BAKSPC          FFB1 	BASE            141A 	BAUD            
FC5A 	BAUD1           FC62 	BAUD2           0000 	BAUDA           
000C 	BAUDB           001B!	BBASE           0484 	BBG             
03A4 	BELL            03A6 	BELL1           0028 	BELLOF          
0029 	BELLON          04CF 	BLOC            FAD1 	BLOCK           
0061 	BLOFC           0061 	BLONC           0035 	BLTIM           
000F 	BNDRY           1274 	BOOT            FC55 	BOOT1           
FC66 	BOOT2           FC9A 	BOOT2A          FCA8 	BOOT3           
ED80 	BOOTBF          FCEE 	BOOTD           FCEA 	BOOTER          
0080 	BOOTLD          FCD9 	BOOTS           FEEB 	BOTPTR          
FCB7 	BRKFLG          00AE 	BRKKEY          0000 	BSPACE          
EE80 	BUFTOP          0002 	C.EB2           0004 	C.FIVE          
0007 	C.KEYM          0003 	C.LPKB          0060 	C.RGD           
0020 	C.RGD5          0040 	C.SASI          F31E 	CCA             
F323 	CCA1            F324 	CCA2            0124 	CCS             
0126 	CCS1            017D 	CFINIT          FB16 	CHECK           
046A 	CHRDEL          045F 	CHRIN1          0465 	CHRIN2          
0451 	CHRINS          0034 	CHROM1          0035 	CHROM2          
FFB4 	CHRSAV          FC52 	CLOC            03C5 	CLR1            
FD26 	CLRBRK          001A 	CLRCHR          03B9 	CLREOL          
03D6 	CLREOS          03B6 	CLRLIN          001A 	CLRS            
03DA 	CLRS1           03EF 	CLRS2           03CC 	CLRSCN          
0036 	CMDSIZ          FAE0 	CMDTAB          F000 	COLD            
F775 	COMINP          F770 	COMINS          F788 	COMOTS          
F77F 	COMOUT          05CC 	COMRES          05CCC	COMROM          
F091 	CONFG           F08B 	CONFIG          F009 	CONIN           
F790 	CONIOB          F00C 	CONOUT          F006 	CONST           
FFBF 	CONTBL          02B2 	CONTRL          000D 	CR              
FC3E 	CRLF            0030 	CRTBAS          01F7 	CRTD1           
020B 	CRTD2           020E 	CRTD3           0227 	CRTD4           
01DE 	CRTDVR          F2A3 	CRTLDIR         3C00 	CRTMAX          
3000 	CRTMEM          F2E7 	CRTMV           F2E9 	CRTMVO          
F296 	CRTOF1          F293 	CRTOFF          F29C 	CRTON           
F299 	CRTON1          F2F1 	CRTOUT          FFE0 	CRTSTK          
003C 	CRTTOP          0000 	CSPACE          FFAE 	CSRCHR          
0018 	CTC             0018 	CTC0            0019 	CTC1            
001A 	CTC2            001B 	CTC3            FF10 	CTCVEC          
0036 	CTLSIZ          02C9 	CTLTAB          FFAC 	CURSOR          
FF56 	DAY             F086 	DAYTIM          FDF0 	DBL             
00B9 	DDSKID1         0090 	DDSKLD          00BB 	DDSKLD1         
00D7 	DDSKLD2         00D9 	DDSKLD3         0000 	DEBUG           
033A 	DEFCUR          0017 	DELLIN          FFAF 	DIRCUR          
0268 	DIS1            0267 	DISATR          FDC7 	DLN             
FDCC 	DLN1            FDD3 	DLN2            FDD7 	DLN3            
FDE6 	DLN4            FC52 	DLOC            FC2B 	DMPFMT          
035C 	DNCSR           FD77 	DOC             F1F1 	DPM             
FC64 	DSK0            FC69 	DSK1            FC8E 	DSK3            
142E 	DSKCMD          F390 	DSKDVR          FC9A 	DSKERR          
Balcones Operating System for the XEROX 820-II	MACRO-80 3.44	09-Dec-81	PAGE	S-1
The*End

0000 	DSPACE          FDB6 	DTL             FB97 	DUMP            
FBA0 	DUMP2           FBBC 	DUMP3           FBD9 	DUMP4           
FA08 	DVRLMT          F380 	DVRTAB          FD0D 	EATME           
FD90 	EB2LCP          FCDE 	EBOOT           FC2F 	ECHO            
F0A2 	EIRET           0264 	ENATR           0000!	ENTRY           
0004 	EOT             0139 	ERR             0131 	ERR1            
0136 	ERR2            0141 	ERR3            0149 	ERRM1           
0152 	ERRM2           0009 	ERRML           001B 	ESC             
0310 	ESCADR          0332 	ESCAPE          02FF 	ESCTAB          
0011 	ESCTBL          00A6 	EXPBX           FF34 	EXPVEC          
0000 	FALSE           F2FE 	FASTCRT         FF30 	FIFCNT          
FF31 	FIFIN           FF20 	FIFO            FF32 	FIFOUT          
14B3 	FILL            FC56 	FILL1           F470 	FIVDPB          
0020 	FLPY5           0014 	FLPY5ID         001F 	FORCE           
0349 	FORSPC          FE55 	GCP             FE66 	GCP1            
FF1C 	GENVEC          FBE2 	GETHEX          FB34 	GETHLP          
FB3F 	GETLIN          F097 	GETSEL          FB40 	GLIN1           
FB58 	GLIN4           FBE7 	GNUM1           FBEC 	GNUM3           
F319 	GOLD            FAD1 	GOTO            0009 	GPIOCA          
000B 	GPIOCB          0008 	GPIODA          000A 	GPIODB          
FAD1 	HELP            001E 	HELPKEY         FBFB 	HEXBIN          
FA3C 	HOME            033E 	HOMEUP          001E 	HOMSCR          
FF59 	HRS             F066 	IDLE            FC57 	IN1             
FC5E 	IN2             FC74 	IN3             FC76 	IN4             
1482 	INCMD           F137 	INDEX           0016 	INSLIN          
015B 	INTAB           FF50 	INTSTK          11E7 	IOBDVR          
008D 	IOBDVS          F770 	IOBLOC          0003 	IOBYTE          
F7AF 	IOCONI          F796 	IOCONO          F7A3 	IOCONS          
F7BB 	IOLIST          F7CC 	IOLSTS          FEEF 	IPOINT          
FADE 	JPIX            001F 	KBDCTL          001E 	KBDDAT          
F0D8 	KBDIN           F0D5 	KBDIN1          F0CD 	KBDST           
F0E2 	KBMASK          0082 	KDNLIN          F162 	KEY1            
F167 	KEY2            F17F 	KEY3            F184 	KEY4            
F18F 	KEY5            F140 	KEYSRV          0081 	KUPLIN          
FFBD 	LAST            FE10 	LBL             FE33 	LBL1            
FD16 	LCP             FD35 	LCP1            FD48 	LCP2            
FD6A 	LCP3            FD61 	LCPA            FD63 	LCPB            
F2B3 	LDIR1           F2B5 	LDIR2           F2C4 	LDIR3           
0000 	LDIRSM          048D 	LDIRX           FFB2 	LEADIN          
000A 	LF              036C 	LFEED           FF5C 	LINBUF          
03FD 	LIND1           0413 	LIND2           0414 	LIND3           
03F1 	LINDEL          042C 	LINI1           0435 	LINI2           
0442 	LINI3           0419 	LININS          008A 	LOCALF          
0036 	LOWLITE         F06C 	LPK1            F14A 	LPK2            
FAE2 	LPK3            FAF8 	LPK4            F30F 	LPK5            
FCBD 	LPK6            F22F 	LPK7            00FD 	LPKBD           
0490 	LPKINF          04AA 	LPKTAB          F333 	LSTATT          
FD8E 	LTL             0800 	LX1984          0291 	M3TST           
02A0 	M4TST           02A7 	M5TST           F0E3 	MASK            
FB2A 	MDATA           FC58 	MDMP1           FC5B 	MDMP2           
FC60 	MDMP3           FC66 	MDMP3A          FC6E 	MDMP3B          
13B9 	MEMDMP          F236 	MIL0            F246 	MIL01           
F250 	MIL02           F258 	MILL1           F265 	MILL2           
F278 	MILL3           F27C 	MILL4           F27E 	MILL5           
F281 	MILL6           F1FD 	MILLI           FF50 	MILSEC          
FF5A 	MINS            0254 	MODE            0256 	MODE1           
Balcones Operating System for the XEROX 820-II	MACRO-80 3.44	09-Dec-81	PAGE	S-2
The*End

0499 	MONINF          F000 	MONITR          FF57 	MONTH           
00E2 	MOVLN           0229 	MULTI           04BE 	NDLPKTB         
04CF 	NDXMON          0335 	NONO            F13F 	NULINT          
0006 	NUMCON          4000 	O.AUTO          0400 	O.BAUD          
0800 	O.DDVR          0020 	O.DISK          0010 	O.ESCT          
0004 	O.FILL          2000 	O.HELP          0200 	O.INPC          
0002 	O.MOVE          0100 	O.OUTC          1000 	O.PROT          
0040 	O.RAMT          8000 	O.RESV          0001 	O.TERM          
0008 	O.TYPE          0080 	O.VERF          FEF1 	OPOINT          
9F3D 	OPTIONS         FFCC 	OSBOOT          14A9 	OUTCMD          
FEA0 	OUTCRT          F288 	OUTCUR          FC28 	OUTPUT          
0007 	P.ACKN          0000 	P.AUTO          0006 	P.ONLN          
0005 	P.RDYI          0004 	P.RDYO          0002 	P.STRB          
FB65 	PARA0           FB74 	PARA1           FB79 	PARA2           
FB7E 	PARA4           FFB5 	PARAM1          FFB7 	PARAM2          
FFB9 	PARAM3          FFBB 	PARAM4          FB67 	PARAMS          
000F 	PASS8           FA0E 	PHYCMD          FA15 	PHYDMA          
FA10 	PHYDRV          FA13 	PHYSEC          FA11 	PHYTRK          
FA0F 	PHYUNT          F7F0 	PIO1            F7DC 	PIOOUT          
F7F4 	PIOSTO          FCB6 	PKI             FCCE 	PKI1            
FCE4 	PKI2            FCF8 	PKI3            FCFB 	PKI4            
FD03 	PKI5            FD0B 	PKI6            FD13 	PKI7            
FD19 	PKI8            FD20 	PKI9            FC45 	PNEXT           
FE7D 	PORTS           FD45 	PRC             FA9D 	PRMPT0          
FAB4 	PRMT1           FA62 	PROMPT          FC65 	PROT1           
FC6C 	PROT2           14C1 	PROTO           0000 	PRS             
0002 	PRS1            003B 	PRS2            0064 	PRS3            
0073 	PRS4            0121 	PRS5            F339 	PRVATT          
FC23 	PUT2HS          FC0B 	PUT2HX          FB31 	PUT2J           
FC1E 	PUT4HS          FC14 	PUTNIB          FF00 	RAM             
04CF 	RBASE           FE73 	RCP             FE78 	RCPA            
FA4A 	RDWR            FA48 	READ            F130 	REMOVE          
0C52 	RESLEN          F07C 	RESTART         FC52 	RESTOP          
04A9 	RETINF          F1EF 	RETINS          0367 	RETURN          
F0A1 	RETV1           F09A 	RETVAL          01F4 	REV             
F1E9 	RFI             0021 	RGD5            0024 	RGD5ID          
F708 	RIGDPB          00B2 	RMTALF          00B1 	RMTTOG          
0000 	ROM             1800 	ROMSIZ          17EB 	ROMTOP          
FA08 	RQTOP           F332 	RSTATT          FFE2 	RSTHL           
FFE4 	RSTPC           FFE0 	RSTSP           1800 	RX1984          
0005 	S.AUTOL         0004 	S.AUTOR         0007 	S.LECHO         
0006 	S.RECHO         0300 	SASIDL          F1EC 	SAVSTK          
0014 	SCROLL          009E 	SCRPRT          0238 	SEARCH          
FF5B 	SECS            FA3E 	SEEK            05CC!	SEGA            
FA39 	SEL1            FA17 	SELECT          FA08 	SELERR          
F360 	SELTAB          FA5A 	SELTBL          0249 	SETBLI          
FD31 	SETBRK          0294 	SETCOL          F0A4 	SETCON          
F284 	SETCUR          0252 	SETGRA          024E 	SETINV          
0244 	SETLOW          026C 	SETMSK          F337 	SETPRV          
0285 	SETROW          027A 	SETXY           027E 	SETXY1          
FC77 	SIGN1           FC85 	SIGN2           FC8C 	SIGN3           
FCA6 	SIGN3A          FCAE 	SIGN4           FC52 	SIGNON          
EF00 	SIOBUF          0006 	SIOCPA          0007 	SIOCPB          
0004 	SIODPA          0005 	SIODPB          FEE6 	SIOI1           
F0F0 	SIOIN           F0ED 	SIOIN1          FEDB 	SIOINC          
FE84 	SIOINP          FE7C 	SIOINS          FECD 	SIOIST          
Balcones Operating System for the XEROX 820-II	MACRO-80 3.44	09-Dec-81	PAGE	S-3
The*End

F10C 	SIOMSK          FE95 	SIOOT           FE96 	SIOOT1          
F0F8 	SIOOUT          FEAC 	SIOPL           FEC1 	SIOPL1          
FECA 	SIOPL2          FECB 	SIOPL3          F113 	SIORD1          
F129 	SIORD2          F12C 	SIORD3          FE8F 	SIORDT          
F105 	SIORDY          F0E5 	SIOST           F10E 	SIOVAL          
FF00 	SIOVEC          F0F9 	SIOX1           0031 	SLDDEN          
0030 	SLSDEN          0446 	SMP             FD51 	SNDLOC          
FD64 	SNDRMT          F0D2 	SOFT            FC26 	SPACE           
F20E 	SPACT           F22D 	SPADDR          FFCD 	SPARE           
FFCB 	SPARE1          FFD0 	SPARND          F224 	SPCNT           
F0BF 	SSP             0000 	STACK           1121 	START           
FEEA 	STATUS          FF54 	STEPRT          17EB 	STOP            
0336 	STUFF           FCFF 	SWAP            FD0C 	SWAP1           
0069 	SYNC            001D 	SYSCTL          001C 	SYSPIO          
FF18 	SYSVEC          0394 	TAB             154A 	TERM            
FC5B 	TERM1           FC65 	TERM2           FCA8 	TERM3           
FAD1 	TEST            FF52 	TIKCNT          F192 	TIMER           
F1B1 	TIMER1          F1B9 	TIMER2          F1E8 	TIMER3          
FF55 	TIMOUT          06CA 	TLOC            FEED 	TOPPTR          
02A1 	TPAL            02A2 	TPAMAX          0100 	TRMBUF          
EF00 	TRMSTK          FFFF 	TRUE            00F4 	TSTRET          
FC5B 	TYP0            FC8D 	TYP1            FCA1 	TYP2            
14DF 	TYPE            00FF 	TYPTOG          0351 	UPCSR           
F048 	USRSEC          F31B 	USRSTK          55AA 	VALNUM          
FF00 	VECTAB          FAD1 	VERCMD          13DC 	VIEW            
FC52 	VIEW0           FC6C 	VIEW1           FC86 	VIEW2           
FC87 	VIEW3           FC8B 	VIEW4           FC8D 	VIEW5           
F003 	WARM            F35F 	WASTED          0010 	WD1797          
0298 	WD17DL          FAD1 	WHAT            FE46 	WLP             
FA44 	WRITE           FE39 	WUP             0003!	XCKS            
000B!	XCKS1           00C3 	XJUMP           04C0 	XMON            
04BE 	XMONDES         0013 	XOFF            F12D 	XOFFLG          
0011 	XON             F115 	XONENB          F344 	XQDVR           
FA51 	XQPHYS          FF58 	YEAR            EE7D 	Z.BAUA          
EE7E 	Z.BAUB          EE7F 	Z.IOBT          EE62 	Z.KEYM          
EE5F 	Z.SCRA          EE63 	Z.SIOA          EE6D 	Z.SIOB          
EE77 	Z.SIOM          EE79 	Z.SIOV          EE60 	Z.STPR          
EE7B 	Z.XONP          



No Fatal error(s)


    00C3 	XJUMP           04C