BALCONES OPERATING SYSTEM FOR THE XEROX 820-II   	MACRO-80 3.44	09-Dec-81	PAGE	1


                                	TITLE	BALCONES OPERATING SYSTEM FOR THE XEROX 820-II   
                                	.Z80
                                ;
                                ;
                                ;                Balcones Operating System for XEROX 820-II
                                ;
                                ;             Copyright 1982 (C) Balcones Computer Corporation
                                ;
                                ;                           All rights reserved
                                ;
                                ;	Genesis:
                                ;
                                ;	In the beginning there was no order, only chaos.  Then came
                                ;	the Big Board.  This expanding cloud of hot gas contained the 
                                ;	fundamental matter necessary to produce	a Xerox copy of itself.
                                ;
                                ;
                                ;	Version 0.00	March 2, 1982.  Robert Burns, Bcc.
                                ;
                                ;	The 820-2/4 monitor sources converted to M80 format.
                                ;
  0000                          REV	DEFL	000
                                ;
                                ;	Version 0.01	March 3, 1982	Robert Burns, Bcc.
                                ;
                                ;	The code placement was reorganized to conserve valuable RAM.
                                ;	In particular, the CRT driver was reworked extensively.  It
                                ;	now executes directly out of the ROM in the screen bank.
                                ;	There ain't no such thing as a free lunch.  (wait states)
                                ;	The G command scans arguments to HL, DE, BC for the callee.
                                ;	It also prints the A register and the HL registers on return.
                                ;	The Input and Output commands were repaired for scroll port.
                                ;	A debug loader is provided for check-out in banked RAM.
                                ; 
  0001                          REV	DEFL	001
                                ;
                                ;	Version 0.02	March 4, 1982.  Robert Burns, Bcc.
                                ;
                                ;	The CRT driver will allow interrupts during screen processing.
                                ;	A fast CRT driver was provided that does not save/restore the
                                ;	registers.  CP/M does not require this time consuming service.
                                ;	The upper 4k of RAM is tested on reset.
                                ;
  0002                          REV	DEFL	002
                                ;
                                ;	Version 0.03	March 5, 1982.	Robert Burns, Bcc.
                                ;
                                ;	Several Entry Point Vectors were installed to access a
                                ;	standard physical disk driver executrix.  They provide
                                ;	a complete, dynamic logical to physical device mapping.
                                ;	The 820 disk entry vectors  were replaced by an Emulator
                                ;	that interfaces to this logical to physical disk mapper.
                                ;	The standard CP/M deblocker also knows how to employ these
                                ;	drivers.  1k of code space was reserved within the RAM
                                ;	Resident Monitor for the actual physical drivers, which
                                ;	are assembled and linked independently.
BALCONES OPERATING SYSTEM FOR THE XEROX 820-II   	MACRO-80 3.44	09-Dec-81	PAGE	1-1


                                ;
  0003                          REV	DEFL	003
                                ;
                                ;	Version 0.04	March 9, 1982.  Robert Burns, Bcc.
                                ;
                                ;	An escape table with insert line, delete line, and sundry
                                ;	attribute control functions was installed.  Change message text
                                ;	as specified by C. Key.  In and Out commands accept 16 bit
                                ;	port addresses.  Command to select 7 or 8 bit data from keyboard.
                                ;
  0004                          REV	DEFL	004
                                ;
                                ;	Version 0.05	March 10, 1982.  Robert Burns, Bcc.
                                ;
                                ;	Background screen print with Xon/Xoff protocol added.  Insert and
                                ;	delete character provided.  The configuration byte will provide the
                                ;	calling program with information about the attached peripherals
                                ;	and software flags indicating 7 or 8  bit keyboard data, etc.
                                ;	An Options statement was added that allows certain less important
                                ;	routines to not be included at assembly time, since ROM space
                                ;	is tight.  Provided a user accessible 1 second interrupt jump vector.
                                ;
  0005                          REV	DEFL	005
                                ;
                                ;	Version 0.06	March 12, 1982.  Robert Burns, Bcc.
                                ;
                                ;	Corrected Disk Parameter Tables for variable rigid partitions.
                                ;	Made boot loader read into temporary buffer so big sectors
                                ;	Don't clobber the TPA.
                                ;
  0006                          REV	DEFL	006
                                ;
                                ;	Version 0.07	March 13, 1982.  Robert Burns, Bcc.
                                ;
                                ;	Added high level language interface to Daytim, Getsel, and Getcon
                                ;	Centralized CRT RAM turn on/off
                                ;
  0007                          REV	DEFL	007
                                ;
                                ;	Version 0.08	March 13, 1982.  Robert Burns, Bcc.
                                ;
                                ;	Set escape table as an option, with all video control codes
                                ;	as control characters, except cursor positioning.  Set
                                ;	typewriter/terminal mode as an option.  Corrected configuration
                                ;	check to disable drive select if WD 1797 disk board is installed.
                                ;
  0008                          REV	DEFL	008
                                ;
                                ;	Version 0.09	March 14, 1982.  Robert Burns, Bcc.
                                ;
                                ;	Added configurable options: Xon/Xoff, hardware handshake,
                                ;	step rate for WD 1797.  Use keyboard data mask to mask
                                ;	video output data so that WordStar files display properly
                                ;	when typed, if keyboard passes only 7 bits.  Cursor modified.
                                ;	Added rigid disk boot from any partition.
                                ;
BALCONES OPERATING SYSTEM FOR THE XEROX 820-II   	MACRO-80 3.44	09-Dec-81	PAGE	1-2


  0009                          REV	DEFL	009
                                ;
                                ;	Version 0.10	March 14, 1982.  Robert Burns, Bcc.
                                ;
                                ;	Burned first ROM
                                ;
  000A                          REV	DEFL	010
                                ;
                                ;	Version 1.0x	March 18, 1982...
                                ;
                                ;	Boot command now automatically switches drive with A:
                                ;	Won't jump into an E5 sector,
                                ;	Enabled disk read/write commands, and
                                ;	Dug gold mine in video driver.
                                ;
  0065                          REV	DEFL	101
  0066                          REV	DEFL	102
  006E                          REV	DEFL	110		;ROM burned
  006F                          REV	DEFL	111		;new WD driver
  0070                          REV	DEFL	112		;baud rate command, II/IV
  0078                          REV	DEFL	120		;ROM Burned
  0079                          REV	DEFL	121		;line feed burys gold
  007A                          REV	DEFL	122		;made LDIRS macro
  0082                          REV	DEFL	130		;new disk drivers
  0083                          REV	DEFL	131		;fixed single density selection
  008C                          REV	DEFL	140		;burned ROM
  0096                          REV	DEFL	150		;transient area code macros
  0097                          REV	DEFL	151		;transient commands
  00A0                          REV	DEFL	160		;Burned ROM with faith
  00A1                          REV	DEFL	161		;Faith didn't help
  00AA                          REV	DEFL	170		;coming down the wire
  00AB                          REV	DEFL	171		;reworked double sided code
  00AC                          REV	DEFL	172		;fixed SA1403 DS
  00AD                          REV	DEFL	173		;installed help text
  00AE                          REV	DEFL	174		;fixed 1797 DS
  00AF                          REV	DEFL	175		;rigid partitions
  00B0                          REV	DEFL	176		;write enabled floppy if rigid par bad
  00B1                          REV	DEFL	177		;CRC, config, more gold for the Goose
  00B2                          REV	DEFL	178		;almost Final ROM Prior to QA Testing
  00B3                          REV	DEFL	179		;adjusted SIO mask for S. T.
  00B4                          REV	DEFL	180		;this is the one that burned 'em up
  00B5                          REV	DEFL	181		;fix DD configure
  012C                          REV	DEFL	300		;This was IT
  00B6                          REV	DEFL	182
  00B7                          REV	DEFL	183		;parallel printer, copyright, iobyte
  00BE                          REV	DEFL	190		;disk drivers at same exec address
  012C                          REV	DEFL	300		;This is really it, Charlie
  012D                          REV	DEFL	301		;proof that there is always another change
  018F                          REV	DEFL	399		;SA1403D error recovery, AS31A rev 02
  018E                          REV	DEFL	398		;WD1797 density select error recovery
  018D                          REV	DEFL	397		;idle / soft error report
  018C                          REV	DEFL	396		;Western Digital cleanup, removed fill, ramt
  018B                          REV	DEFL	395		;eat keyboard error message
  018A                          REV	DEFL	394		;auto boot A:
  0189                          REV	DEFL	393		;fix auto boot
  0188                          REV	DEFL	392		;no auto boot
BALCONES OPERATING SYSTEM FOR THE XEROX 820-II   	MACRO-80 3.44	09-Dec-81	PAGE	1-3


  0187                          REV	DEFL	391		;fix SA select failure, WD ready time, 10 msec
  0186                          REV	DEFL	390		;fix SA floppy format code
  0190                          REV	DEFL	400		;handle dead DTC controller during density sel
  0191                          REV	DEFL	401		;corrected WD driver stack overflow
                                	SUBTTL	SYMBOL DEFINITIONS
                                	PAGE	64
BALCONES OPERATING SYSTEM FOR THE XEROX 820-II   	MACRO-80 3.44	09-Dec-81	PAGE	1-4
SYMBOL DEFINITIONS

                                
  FFFF                          TRUE	EQU	-1
  0000                          FALSE	EQU	NOT TRUE
  0000                          DEBUG	EQU	FALSE		;assemble RAM loader
  0000                          LDIRSM	EQU	FALSE		;simulate LDIR on screen accesses
                                ;
                                ;	Absolute Memory Addresses.
                                ;
  0000                          ROM	EQU	01000H AND DEBUG;non resident code base
  1800                          ROMSIZ	EQU	01000H+((NOT DEBUG) AND 0800H)
  1800                          RX1984	EQU	01800H		;prescription for the future
  0800                          LX1984	EQU	00800H		;length of future
  0003                          IOBYTE	EQU	00003H		;I/O byte
  0080                          BOOTLD	EQU	00080H		;boot loader address
  ED80                          BOOTBF	EQU	0ED80H		;boot loader buffer
  FF00                          RAM	EQU	0FF00H		;system RAM page address
  F000                          MONITR	EQU	0F000H		;resident monitor address
  3000                          CRTMEM	EQU	03000H		;CRT memory address
  3C00                          CRTMAX	EQU	CRTMEM+24*128	;CRT maximum address
  0030                          CRTBAS	EQU	HIGH CRTMEM	;starting page of display RAM
  003C                          CRTTOP	EQU	HIGH CRTMAX	;ending page of display RAM
                                ;
                                ;	I/O Port Addresses.
                                ;
  0000                          BAUDA	EQU	00H		;channel A baud rate generator
  0004                          SIODPA	EQU	04H		;SIO data port A (communications)
  0005                          SIODPB	EQU	05H		;SIO data port B (printer)
  0006                          SIOCPA	EQU	06H		;SIO control/status port A
  0007                          SIOCPB	EQU	07H		;SIO control/status port B
  0008                          GPIODA	EQU	08H		;general purpose parallel I/O A data
  0009                          GPIOCA	EQU	09H		;general purpose parallel I/O A control
  000A                          GPIODB	EQU	0AH		;general purpose parallel I/O B data
  000B                          GPIOCB	EQU	0BH		;general purpose parallel I/O B control
  000C                          BAUDB	EQU	0CH		;channel B baud rate generator
  0010                          WD1797	EQU	10H		;Western Digital disk controller base
  0014                          SCROLL	EQU	14H		;CRT bottom line scroll register
  0018                          CTC	EQU	18H		;quad counter/timer circuit
  0018                          CTC0	EQU	18H		;CTC channel 0 (user)
  0019                          CTC1	EQU	19H		;CTC channel 1 (msec, screen print)
  001A                          CTC2	EQU	1AH		;CTC channel 2 (one second prescaler)
  001B                          CTC3	EQU	1BH		;CTC channel 3 (one second)
  001C                          SYSPIO	EQU	1CH		;system PIO data
  001D                          SYSCTL	EQU	1DH		;system PIO control
  001E                          KBDDAT	EQU	1EH		;keyboard data
  001F                          KBDCTL	EQU	1FH		;keyboard control
  0028                          BELLOF	EQU	28H		;turn bell off
  0029                          BELLON	EQU	29H		;turn bell on
  0030                          SLSDEN	EQU	30H		;select single density
  0031                          SLDDEN	EQU	31H		;select double density
  0034                          CHROM1	EQU	34H		;select ROM 1 character generator
  0035                          CHROM2	EQU	35H		;select ROM 2 character generator
  0036                          LOWLITE	EQU	36H		;select low intensity attribute
  0068                          ASYNC	EQU	68H		;set internal clocks for asynchronous SIO A
  0069                          SYNC	EQU	69H		;set external clocks for  synchronous SIO A
                                ;
                                ;	Configuration Status Byte Bit Definitions.
                                ;
  0007                          C.KEYM	EQU	7		;Keyboard upper bit is passed
  0006                          C.SASI	EQU	6		;Shugart SA-1403D Disk Controller
BALCONES OPERATING SYSTEM FOR THE XEROX 820-II   	MACRO-80 3.44	09-Dec-81	PAGE	1-5
SYMBOL DEFINITIONS

  0004                          C.FIVE	EQU	4		;Five inch micro floppies
                                ;
                                ;	ASCII Control Characters.
                                ;
  0004                          EOT	EQU	04H		;ASCII end of text
  000A                          LF	EQU	0AH		;ASCII line feed
  000D                          CR	EQU	0DH		;ASCII carriage return
  0011                          XON	EQU	11H		;ASCII Xon
  0013                          XOFF	EQU	13H		;ASCII Xoff
  001B                          ESC	EQU	1BH		;ASCII escape
  001A                          CLRS	EQU	1AH		;clear screen
                                ;
                                ;	Special Key Constants.
                                ;
  001E                          HELPKEY	EQU	01EH
  009E                          SCRPRT	EQU	09EH		;Screen Print key CTRL <HELP>
  009B                          ABORT	EQU	09BH		;Automatic Abort  CTRL <ESC>
                                ;
                                ;	Bell Constants.
                                ;
  0035                          BLTIM	EQU	35H		;bell loop time
  0061                          BLONC	EQU	61H		;bell on time
  0061                          BLOFC	EQU	61H		;bell off time
                                ;
                                ;	Assembly Options.
                                ;
  8000                          O.RESV	EQU	1000000000000000B	;reserved
  4000                          O.AUTO	EQU	0100000000000000B	;auto boot A:
  2000                          O.HELP	EQU	0010000000000000B	;help command
  1000                          O.PROT	EQU	0001000000000000B	;printer protocol
  0800                          O.DDVR	EQU	0000100000000000B	;disk drivers
  0400                          O.BAUD	EQU	0000010000000000B	;baud rate set command
  0200                          O.INPC	EQU	0000001000000000B	;in command
  0100                          O.OUTC	EQU	0000000100000000B	;out command
  0080                          O.VERF	EQU	0000000010000000B	;verify memory block
  0040                          O.RAMT	EQU	0000000001000000B	;simple RAM test
  0020                          O.DISK	EQU	0000000000100000B	;console disk read/write commands
  0010                          O.ESCT	EQU	0000000000010000B	;escape command table
  0008                          O.TYPE	EQU	0000000000001000B	;typewriter mode
  0004                          O.FILL	EQU	0000000000000100B	;fill memory
  0002                          O.MOVE	EQU	0000000000000010B	;move memory
  0001                          O.TERM	EQU	0000000000000001B	;terminal scroll driver
  0000                          OPTIONS	DEFL	DEBUG    AND NOT O.DDVR AND NOT O.ESCT
  0000                          OPTIONS	DEFL	OPTIONS  AND NOT O.DISK AND NOT O.RESV
  0000                          OPTIONS	DEFL	OPTIONS  AND NOT O.VERF AND NOT O.FILL
  0000                          OPTIONS	DEFL	OPTIONS  AND NOT O.RAMT
  BFFF                          OPTIONS	DEFL	(NOT DEBUG OR O.ESCT) AND NOT O.AUTO
                                ;
                                ;	Configuration Sector Offsets.
                                ;
  EE5F                          Z.SCRA	EQU	BOOTBF+255-32	;initial screen attribute
  EE60                          Z.STPR	EQU	Z.SCRA+1	;floppy step rate
  EE62                          Z.KEYM	EQU	Z.STPR+2	;keyboard mask
  EE63                          Z.SIOA	EQU	Z.KEYM+1	;SIO A init
  EE6D                          Z.SIOB	EQU	Z.SIOA+10	;SIO B init
  EE77                          Z.SIOM	EQU	Z.SIOB+10	;clear to send low/high/ignore
  EE79                          Z.SIOV	EQU	Z.SIOM+2	;data carrier detect low/high/ignore
  EE7B                          Z.XONP	EQU	Z.SIOV+2	;Xon/Xoff protocol
  EE7D                          Z.BAUA	EQU	Z.XONP+2	;comm channel baud rate
  EE7E                          Z.BAUB	EQU	Z.BAUA+1	;printer baud rate
BALCONES OPERATING SYSTEM FOR THE XEROX 820-II   	MACRO-80 3.44	09-Dec-81	PAGE	1-6
SYMBOL DEFINITIONS

  EE7F                          Z.IOBT	EQU	Z.BAUB+1	;initial I/O byte
                                ;
                                ;	Parallel Printer Status Bits.
                                ;
  0007                          P.ACKN	EQU	7		;acknowledge
  0006                          P.ONLN	EQU	6		;on line
  0005                          P.RDYI	EQU	5		;ready to input
  0004                          P.RDYO	EQU	4		;ready to output
  0002                          P.STRB	EQU	2		;data stobe
  0000                          P.AUTO	EQU	0		;auto LF enable
                                	SUBTTL	CODE GENERATION CONTROL MACROS DEFINITIONS
                                	PAGE
BALCONES OPERATING SYSTEM FOR THE XEROX 820-II   	MACRO-80 3.44	09-Dec-81	PAGE	1-7
CODE GENERATION CONTROL MACROS DEFINITIONS

                                
                                ;
                                ;	ROM Code Placement Macros.
                                ;
                                ;
                                ;	The Common Segment holds the non-resident (banked) portion
                                ;	of the monitor.  This segment is not copied to RAM.
                                ;
                                ;
                                ;	The Data Segment holds the resident portion of the monitor.
                                ;	It is moved to RAM, at location MONITR during initialization.
                                ;
                                ;
                                ;	The Code Segment holds the various Transient Commands.  Each
                                ;	command is loaded from the ROM to the TPA when it is executed.
                                ;
                                ;
                                ;	The following macros keep it all straight.
                                ;
                                ;
                                ;	BELOW - Generate code for ROM below.
                                ;
                                BELOW	MACRO
                                	SEGMENT	B		;;enable common segment
                                	ENDM
                                ;
                                ;	ABOVE - Generate code for RAM above.
                                ;
                                ABOVE	MACRO
                                	SEGMENT	D		;;enable data segment
                                	ENDM
                                ;
                                ;	OVERLAY - Generate code for transients.
                                ;
                                OVERLAY	MACRO	ADDR
                                TLOC	DEFL	TLOC+$-CLOC
                                ADDR	EQU	TLOC+BLOC+CLOC-MONITR
                                	SEGMENT	C		;;enable code segment
                                	ENDM
                                ;
                                ;	BSEG - activate common segment.
                                ;
                                BSEG	MACRO
                                	COMMON	/COMROM/
                                	DEFS	COMRES
                                SEGA	DEFL	$
                                	ENDM
                                ;
                                ;	SEGMENT - Activate Segment.
                                ;
                                SEGMENT	MACRO	S
                                	UPDATE			;;update active phase counter
                                S&SPACE	DEFL	-1		;;set enabled segment active        
                                	S&SEG			;;activate segment code placement
                                	.PHASE	S&LOC		;;set absolute segment location counter
                                	ENDM
                                ;
                                ;	UPDATE - Update Phase Counters.
                                ;
BALCONES OPERATING SYSTEM FOR THE XEROX 820-II   	MACRO-80 3.44	09-Dec-81	PAGE	1-8
CODE GENERATION CONTROL MACROS DEFINITIONS

                                UPDATE	MACRO
                                	IF	BSPACE
                                COMRES	DEFL	$-ROM+100H-3
                                	ENDIF
                                	IRPC	X,<BCD>
                                	IF	X&SPACE		;;if segment active
                                	IF	CSPACE
                                	IF	TPAL LT ($-CLOC)
                                TPAL	DEFL	$-CLOC
                                	ENDIF
                                	ELSE
                                X&LOC	DEFL	$		;;save segment address
                                	ENDIF
                                X&SPACE	DEFL	0		;;clear segment active
                                	.DEPHASE		;;revert to relocatable
                                	ENDIF
                                	ENDM
                                	ENDM
  0000                          BLOC	DEFL	ROM		;establish non-resident code base
  F000                          DLOC	DEFL	MONITR		;establish resident code base
  0000                          TLOC	DEFL	0		;establise transient code base
  0000                          TPAL	DEFL	0		;establish maximum transient length
  0000                          BSPACE	DEFL	0		;preset common segment inactive
  0000                          CSPACE	DEFL	0		;preset code segment inactive
  0000                          DSPACE	DEFL	0		;preset data segment inactive
  0000                          COMRES	DEFL	0		;preset common base address
                                LDIRS	MACRO
                                	IF	LDIRSM
                                	CALL	SIMLDIR
                                	ELSE
                                	LDIR
                                	ENDIF
                                	ENDM
                                	SUBTTL	RAM LOADER FOR TESTING ONLY
                                	PAGE
BALCONES OPERATING SYSTEM FOR THE XEROX 820-II   	MACRO-80 3.44	09-Dec-81	PAGE	1-9
RAM LOADER FOR TESTING ONLY

                                
                                	BSEG
  0000!                   +     	DEFS	COMRES
  0000!                         ENTRY:
                                	IF	DEBUG
                                	JP	CPYOUT
                                	JP	XCKS		;compute checksum
                                CPYOUT:	DI
                                	LD	HL,BBASE	;move code out of resident memory
                                	LD	DE,0C000H
                                	LD	BC,ROMSIZ+MOVLN
                                	LDIR
                                	JP	0C000H
                                	ELSE
  0000!   C3 0003!              	JP	XCKS
                                	ENDIF
  0003!   21 00FD!              XCKS:	LD	HL,BBASE+MOVLN
  0006!   01 17FF               	LD	BC,ROMSIZ-1
  0009!   1E 00                 	LD	E,0		;preset checksum
  000B!   7E                    XCKS1:	LD	A,(HL)
  000C!   23                    	INC	HL
  000D!   83                    	ADD	A,E
  000E!   5F                    	LD	E,A
  000F!   0B                    	DEC	BC
  0010!   78                    	LD	A,B
  0011!   B1                    	OR	C
  0012!   20 F7                 	JR	NZ,XCKS1
  0014!   7B                    	LD	A,E		;store twos complement of checksum
  0015!   ED 44                 	NEG
  0017!   77                    	LD	(HL),A		;store checksum
  0018!   C3 0000               	JP	0
                                	IF	DEBUG
                                	DEFS	80H-($-(ENTRY-3)),-1
                                	ENDIF
                                	SUBTTL	SYSTEM INITIALIZATION
                                	PAGE
BALCONES OPERATING SYSTEM FOR THE XEROX 820-II   	MACRO-80 3.44	09-Dec-81	PAGE	1-10
SYSTEM INITIALIZATION

                                
  001B!                         BBASE:				;symbol for accessing non-resident base address
                                	IF	DEBUG
                                	LD	HL,0C000H+MOVLN	;move code into banked memory
                                	LD	DE,PRS		;set destination below
                                	LD	BC,ROMSIZ	;move 4k
                                	IN	A,(SYSPIO)
                                	OR	80H		;turn on ROM/RAM bank
                                	OUT	(SYSPIO),A
                                	LDIR
                                	JP	PRS
                                	ENDIF
  001B!                         	DEFS	100H-($-(ENTRY-3)),-1
  00E2                          MOVLN	EQU	$-BBASE
  00FD                          COMRES	DEFL	100H-3
                                	BELOW			;generate non-resident code
  0000!                   +     	DEFS	COMRES
                                ;
                                ;	PRS - preset storage.
                                ;
                                ;	Entry:	Power up or Reset button.
                                ;
  0000    F3                    PRS:	DI			;lock up system
  0001    AF                    	XOR	A
  0002    3D                    PRS1:	DEC	A		;the pause that refreshes
  0003    20 FD                 	JR	NZ,PRS1
  0005    ED 73 FFE0            	LD	(RSTSP),SP	;save partial reset state
  0009    22 FFE2               	LD	(RSTHL),HL	;in case the luser go boom
  000C    E1                    	POP	HL		;pick possible return off stack
  000D    22 FFE4               	LD	(RSTPC),HL
  0010    D9                    	EXX			;give primary registers half a break
  0011    1C                    	INC	E
  0012    31 3839               	LD	SP,3839H	;load strange values in SP
  0015    31 4142               	LD	SP,4142H
  0018    4C                    	LD	C,H		;insure
  0019    43                    	LD	B,E		;registers
  001A    4F                    	LD	C,A		;can
  001B    4E                    	LD	C,(HL)		;forget
  001C    45                    	LD	B,L		;insure
  001D    53                    	LD	D,E		;registers
  001E    43                    	LD	B,E		;can
  001F    4F                    	LD	C,A		;copy
  0020    4D                    	LD	C,L
  0021    50                    	LD	D,B
  0022    55                    	LD	D,L
  0023    54                    	LD	D,H
  0024    45                    	LD	B,L
  0025    52                    	LD	D,D
  0026    08                    	EX	AF,AF'
  0027    3E 17                 	LD	A,24-1		;line up bottom of screen
  0029    D3 14                 	OUT	(SCROLL),A	;init scroll port
  002B    21 3000               	LD	HL,CRTMEM	;clear display memory
  002E    36 20                 	LD	(HL),' '
  0030    11 3001               	LD	DE,CRTMEM+1
  0033    01 0BFF               	LD	BC,CRTMAX-CRTMEM-1
  0036    ED B0                 	LDIR			;pray the video hardware works
  0038    31 F000               	LD	SP,MONITR	;insure monitor RAM ok
  003B    21 AA55               PRS2:	LD	HL,0AA55H	;walk checker board through RAM
  003E    C1                    	POP	BC		;read RAM
BALCONES OPERATING SYSTEM FOR THE XEROX 820-II   	MACRO-80 3.44	09-Dec-81	PAGE	1-11
SYSTEM INITIALIZATION

  003F    E5                    	PUSH	HL		;write RAM fast
  0040    D1                    	POP	DE		;read RAM fast
  0041    C5                    	PUSH	BC		;put RAM back
  0042    F1                    	POP	AF		;and verify it
  0043    90                    	SUB	B
  0044    20 76                 	JR	NZ,ERR1		;if RAM failure
  0046    ED 52                 	SBC	HL,DE
  0048    20 72                 	JR	NZ,ERR1		;if RAM or register failure
  004A    3B                    	DEC	SP		;advance test address
  004B    3F                    	CCF
  004C    ED 7A                 	ADC	HL,SP
  004E    20 EB                 	JR	NZ,PRS2		;if top of memory not reached
  0050    31 0000               	LD	SP,STACK	;set monitor stack
  0053    21 0000               	LD	HL,PRS		;set ROM address
  0056    01 1800               	LD	BC,ROMSIZ
  0059    CD 00AF               	CALL	CCS		;compute check sum
  005C    20 63                 	JR	NZ,ERR2		;if bad ROM
  005E    21 00E6               	LD	HL,INTAB	;point to default variable table
  0061    06 00                 PRS3:	LD	B,0
  0063    4E                    	LD	C,(HL)		;set data block length
  0064    23                    	INC	HL
  0065    5E                    	LD	E,(HL)		;set variable address in RAM
  0066    23                    	INC	HL
  0067    56                    	LD	D,(HL)
  0068    23                    	INC	HL		;point to initial values
  0069    ED B0                 	LDIR			;copy data from ROM to variables in RAM
  006B    CB 7E                 	BIT	7,(HL)
  006D    28 F2                 	JR	Z,PRS3		;if more data to preset
  006F    23                    	INC	HL		;point to I/O init data table
  0070    46                    PRS4:	LD	B,(HL)		;set number of bytes to preset
  0071    23                    	INC	HL
  0072    4E                    	LD	C,(HL)		;set I/O port address
  0073    23                    	INC	HL
  0074    ED B3                 	OTIR			;shoot preset data to I/O device
  0076    CB 7E                 	BIT	7,(HL)
  0078    28 F6                 	JR	Z,PRS4		;if more devices require initialization
  007A    DB 1E                 	IN	A,(KBDDAT)	;assert PARDY
  007C    ED 5E                 	IM	2		;select interrupt mode 2
  007E    3E FF                 	LD	A,HIGH VECTAB	;set interrupt vector page
  0080    ED 47                 	LD	I,A
  0082    21 041B               	LD	HL,RBASE	;set resident base address
  0085    11 F000               	LD	DE,MONITR	;set monitor address
  0088    01 0F00               	LD	BC,RAM-MONITR	;set max resident length
  008B    ED B0                 	LDIR			;plant monitor upstairs
  008D    21 1800               	LD	HL,RX1984	;prognosticate
  0090    01 0800               	LD	BC,LX1984
  0093    CD 00AF               	CALL	CCS
  0096    20 14                 	JR	NZ,PRS5
  0098    2A 1FFD               	LD	HL,(RX1984+LX1984-3)
  009B    11 55AA               	LD	DE,55AAH
  009E    ED 52                 	SBC	HL,DE
  00A0    21 FAD8               	LD	HL,CMDTAB
  00A3    11 F360               	LD	DE,SELTAB
  00A6    01 FC55               	LD	BC,CLOC
  00A9    CC 1800               	CALL	Z,RX1984	;FutureShock
  00AC    C3 FC55               PRS5:	JP	SIGNON		;Signon Resident Monitor
  00AF    1E 00                 CCS:	LD	E,0		;preset ckecksum
  00B1    7E                    CCS1:	LD	A,(HL)
  00B2    23                    	INC	HL
  00B3    83                    	ADD	A,E
BALCONES OPERATING SYSTEM FOR THE XEROX 820-II   	MACRO-80 3.44	09-Dec-81	PAGE	1-12
SYSTEM INITIALIZATION

  00B4    5F                    	LD	E,A
  00B5    0B                    	DEC	BC
  00B6    78                    	LD	A,B
  00B7    B1                    	OR	C
  00B8    20 F7                 	JR	NZ,CCS1
  00BA    B3                    	OR	E
  00BB    C9                    	RET
  00BC    21 00D4               ERR1:	LD	HL,ERRM1	;set RAM error message
  00BF    18 03                 	JR	ERR
  00C1    21 00DD               ERR2:	LD	HL,ERRM2
  00C4    11 3024               ERR:	LD	DE,CRTMEM+40-(ERRML/2)
  00C7    01 0009               	LD	BC,ERRML
  00CA    ED B0                 	LDIR
  00CC    0B                    ERR3:	DEC	BC		;pause a while
  00CD    78                    	LD	A,B
  00CE    B1                    	OR	C
  00CF    20 FB                 	JR	NZ,ERR3
  00D1    C3 0000               	JP	PRS		;try restart again
  00D4    52 41 4D 20           ERRM1:	DB	'RAM Error'
  00D8    45 72 72 6F           
  00DC    72                    
  00DD    52 4F 4D 20           ERRM2:	DB	'ROM Error'
  00E1    45 72 72 6F           
  00E5    72                    
  0009                          ERRML	EQU	($-ERRM1)/2
                                ;
                                ;	Initialize the Interrupt Vector Table
                                ;
  00E6    02                    INTAB:	DEFB	2
  00E7    FF1A                  	DEFW	SYSVEC+2
  00E9    F140                  	DEFW	KEYSRV		;parallel keyboard interrupt vector
  00EB    06                    	DEFB	6
  00EC    FF12                  	DEFW	CTCVEC+2
  00EE    F1FD                  	DEFW	MILLI		;one millisecond interrupt timer
  00F0    0000                  	DEFW	0
  00F2    F192                  	DEFW	TIMER		;one second timer interrupt vector
                                ;
                                ;	Initialize keyboard FIFO buffer
                                ;
  00F4    03                    	DEFB	3
  00F5    FF30                  	DEFW	FIFCNT
  00F7    00                    	DEFB	0		;FIFO count
  00F8    00                    	DEFB	0		;FIFO in
  00F9    00                    	DEFB	0		;FIFO out
                                ;
                                ;	Initialize the CRT display
                                ;
  00FA    08                    	DEFB	8
  00FB    FFAC                  	DEFW	CURSOR
  00FD    3000                  	DEFW	CRTMEM		;base address is 3000h
  00FF    02                    	DEFB	02 		;use non-blinking box cursor
  0100    3000                  	DEFW	CRTMEM		;direct CRT memory output address
  0102    17                    	DEFB	23		;initial scroll base
  0103    00                    	DEFB	0		;initial leadin
  0104    00                    	DEFB	0		;initial attribute
                                ;
                                ;	Initialize configurable parameter addresses
                                ;
  0105    0C                    	DEFB	2*NUMCON
  0106    FFBF                  	DEFW	CONTBL		;configure table address
BALCONES OPERATING SYSTEM FOR THE XEROX 820-II   	MACRO-80 3.44	09-Dec-81	PAGE	1-13
SYSTEM INITIALIZATION

  0108    F10C                  CFINIT:	DEFW	SIOMSK		;printer output ready mask
  010A    F10E                  	DEFW	SIOVAL		;printer output ready value
  010C    F115                  	DEFW	XONENB		;Xon/Xoff enable/disable (NOP or RET)
  010E    FF54                   	DEFW	STEPRT		;step rate for WD1797
  0110    FFCB                  	DEFW	SPARE1
  0112    FFCC                  	DEFW	SPARE2
  0006                          NUMCON	EQU	($-CFINIT)/2
  0114    04                    	DEFB	2*2
  0115    FF3C                  	DEFW	AVAILB
  0117    F7FD                  	DEFW	IOBLOC+IOBDVS
  0119    FC80                  	DEFW	RAM-280H
  011B    FF                    	DEFB	-1		;end of variable init table
                                ;
                                ;	I/O port initialization.
                                ;
                                ;	Initialize system PIO for use as bank-switch,
                                ;	configuration select, and parallel keyboard input
                                ;
  011C    01 1D                 	DEFB	1,SYSCTL
  011E    4F                    	DEFB	01001111B	;select input mode
  011F    01 1C                 	DEFB	1,SYSPIO
  0121    80                    	DEFB	10000000B	;enable ROM
  0122    03 1D                 	DEFB	3,SYSCTL
  0124    CF                    	DEFB	11001111B	;put system PIO in bit mode
  0125    3F                    	DEFB	00111111B	;make bits 5, 4, 3, 2, 1, and 0 be inputs
  0126    07                    	DEFB	00000111B	;disable interrupts
  0127    03 1F                 	DEFB	3,KBDCTL
  0129    4F                    	DEFB	01001111B	;put keyboard port in input mode
  012A    1A                    	DEFB	SYSVEC+2	;load keyboard interrupt vector
  012B    83                    	DEFB	10000011B	;enable interrupts
                                ;
                                ;	Initialize Counter Timer Circuit.
                                ;
  012C    02 18                 	DEFB	2,CTC0
  012E    03                    	DEFB	00000011B	;reset timer
  012F    10                    	DEFB	LOW CTCVEC	;base interrupt vector for CTC
  0130    02 19                 	DEFB	2,CTC1
  0132    07                    	DEFB	00000111B	;start timer, but no interrupts
  0133    FA                    	DEFB	250		;CTC1 period = 1 msec
  0134    02 1A                 	DEFB	2,CTC2
  0136    27                    	DEFB	00100111B	;put CTC2 in timer / 256 mode (64 usec/count)
  0137    7D                     	DEFB	125		;CTC2 period = 8 msec
  0138    02 1B                 	DEFB	2,CTC3
  013A    C7                    	DEFB	11000111B	;put CTC3 in counter mode with interrupt
  013B    7D                    	DEFB	125		;CTC3 period = 125*8 msec = 1 second
                                ;
                                ;	Initialize SIO channel B for asynchronous serial
                                ;	interface to printer or terminal
                                ;
  013C    0A 07                 	DEFB	10,SIOCPB
  013E    01                    	DEFB	1		;select register #1
  013F    00                    	DEFB	00000000B	;disable interrupts
  0140    02                    	DEFB	2		;select register #2
  0141    00                    	DEFB	LOW SIOVEC	;base SIO interrupt vector
  0142    03                    	DEFB	3		;select register #3
  0143    41                    	DEFB	01000001B	;7 bits/Rx characters
  0144    04                    	DEFB	4		;select register #4
  0145    47                    	DEFB	01000111B	;16x clock, 1 stop bit, even parity enabled
  0146    05                    	DEFB	5		;select register #5
  0147    AA                    	DEFB	10101010B	;DTR, 7 bits/Tx character, Tx enb, RTS
BALCONES OPERATING SYSTEM FOR THE XEROX 820-II   	MACRO-80 3.44	09-Dec-81	PAGE	1-14
SYSTEM INITIALIZATION

  0148    01 0C                 	DEFB	1,BAUDB
  014A    07                    	DEFB	0111B		;default clock is 1200 bps
                                ;
                                ;	Initialize communications port for async modem interface
                                ;
  014B    08 06                 	DEFB	8,SIOCPA
  014D    01                    	DEFB	1		;select register #1
  014E    00                    	DEFB	00000000B	;disable interrupts
  014F    03                    	DEFB	3		;select register #3
  0150    41                    	DEFB	01000001B	;7 bits/Rx characters
  0151    04                    	DEFB	4		;select register #4
  0152    47                    	DEFB	01000111B	;16x clock, 1 stop bit, even parity enabled
  0153    05                    	DEFB	5		;select register #5
  0154    AA                    	DEFB	10101010B	;DTR, 7 bits/Tx character, Tx enb, RTS
  0155    01 00                 	DEFB	1,BAUDA
                                	IF	DEBUG
                                	DEFB	1110B		;debug clock is 9600 bps
                                	ELSE
  0157    05                    	DEFB	0101B		;default clock is 300 bps
                                	ENDIF
  0158    01 68                 	DEFB	1,ASYNC		;set internal Rx+Tx clocks
  015A    00                    	DEFB	0
                                ;
                                ;	Initialize PIO for Centronics style printer
                                ;
  015B    03 09                 	DEFB	3,GPIOCA
  015D    CF                    	DEFB	11001111B	;mode 3
  015E    00                    	DEFB	00000000B	;all output
  015F    07                    	DEFB	00000111B	;no interrupts
  0160    03 0B                 	DEFB	3,GPIOCB
  0162    CF                    	DEFB	11001111B	;mode 3
  0163    F0                    	DEFB	11110000B	;upper nibble in, lower out
  0164    07                    	DEFB	00000111B	;no interrupts
  0165    01 0A                 	DEFB	1,GPIODB
  0167    05                    	DEFB	(1 SHL P.STRB) OR (1 SHL P.AUTO)
  0168    FF                    	DEFB	-1		;end of I/O init table
                                	SUBTTL	RESIDENT MONITOR ENTRY POINTS
                                	PAGE
BALCONES OPERATING SYSTEM FOR THE XEROX 820-II   	MACRO-80 3.44	09-Dec-81	PAGE	1-15
RESIDENT MONITOR ENTRY POINTS

                                
                                ;
                                ;	Resident monitor entry points.
                                ;
                                ;	This Entry Point Vector provides the only reliable access
                                ;	to services provided by the Resident Monitor.  Any access
                                ;	to code in the Monitor or its RAM page past the keyboard
                                ;	variables is not allowed.  Future releases of the Resident
                                ;	Monitor will always provide compatability with these entry
                                ;	vectors.
                                ;
                                ;	This restriction also applies to the Resident Monitor RAM
                                ;	Page at the top of memory.  Access to RAM Variables must
                                ;	be obtained through the appropriate entry vector.
                                ;
                                	ABOVE
  0266!                   +     	D&SEG
  F000    C3 F07C               COLD:	JP	RESTART		;monitor restart
  F003    C3 FA62               WARM:	JP	PROMPT		;monitor entry point
  F006    C3 F0CD               CONST:	JP	KBDST		;console status to A
  F009    C3 F0D8               CONIN:	JP	KBDIN		;console input to A
  F00C    C3 F2F1               CONOUT:	JP	CRTOUT		;console output from A
  F00F    C3 F2FE               	JP	FASTCRT		;fast CRT output from C
  F012    C3 F0E5               	JP	SIOST		;SIO channel B status to A
  F015    C3 F0F0               	JP	SIOIN		;SIO channel B input to A
  F018    C3 F0F8               	JP	SIOOUT		;SIO channel B output from A
  F01B    C3 FA17               	JP	SELECT		;select drive in C
  F01E    C3 FA3C               	JP	HOME		;home R/W head
  F021    C3 FA3E               	JP	SEEK		;seek to track in C
  F024    C3 FA48               	JP	READ		;read sector C -> buffer @ HL
  F027    C3 FA44               	JP	WRITE		;write sector C <- buffer @ HL
  F02A    C3 F344               	JP	XQDVR		;execute physical driver request @ HL 
  F02D    C3 F284               	JP	SETCUR		;set direct CRT cursor from HL
  F030    C3 F288               	JP	OUTCUR		;direct CRT display
  F033    C3 F2A3               	JP	CRTLDIR		;CRT memory block move ala` LDIR
  F036    C3 F097               	JP	GETSEL		;return address of disk mapping table to HL
  F039    C3 F086               	JP	DAYTIM		;return address of Time-of-Day
  F03C    C3 F08B               	JP	CONFIG		;return configuration status
  F03F    C3 F105               	JP	SIORDY		;SIO channel B output ready status
  F042    C3 F0A4               	JP	SETCON		;set configuration
  F045    C3 F0BF               	JP	SSP		;start screen print
  F048    C3 F13F               USRSEC:	JP	NULINT		;user accessible 1 second interrupt
  F04B    C3 F7A3               	JP	IOCONS		;console status through iobyte
  F04E    C3 F7AF               	JP	IOCONI		;console input through iobyte
  F051    C3 F796               	JP	IOCONO		;console output through iobyte
  F054    C3 F7BB               	JP	IOLIST		;printer output through iobyte
  F057    C3 F7CC               	JP	IOLSTS		;printer status through iobyte
  F05A    C3 F770               	JP	COMINS		;communications input ready status
  F05D    C3 F775               	JP	COMINP		;communications input data to A
  F060    C3 F77F               	JP	COMOUT		;communications output data from C
  F063    C3 F788               	JP	COMOTS		;communications output ready status
  F066    C3 F13F               IDLE:	JP	NULINT		;idle while I/O is pending
  F069    C3 F0D2               	JP	SOFT		;record soft error
  F06C                          	DEFS	16,-1		;space for option ROM linkage
                                	SUBTTL	MONITOR FUNCTION PROCESSORS
                                	PAGE
BALCONES OPERATING SYSTEM FOR THE XEROX 820-II   	MACRO-80 3.44	09-Dec-81	PAGE	1-16
MONITOR FUNCTION PROCESSORS

                                
                                ;
                                ;	Monitor Restart.
                                ;
  F07C    F3                    RESTART:DI			;lock system
  F07D    DB 1C                 	IN	A,(SYSPIO)
  F07F    F6 80                 	OR	1 SHL 7		;enable banked ROM
  F081    D3 1C                 	OUT	(SYSPIO),A
  F083    C3 0000               	JP	PRS		;reload monitor from ROM or RAM
                                ;
                                ;	DAYTIM - Return Address of Time-of-Day.
                                ;
  F086    11 FF56               DAYTIM:	LD	DE,DAY		;point to day of month
  F089    18 0F                 	JR	RETVAL
                                ;
                                ;	CONFIG - Return Configuration Status Byte.
                                ;
  F08B    3A F0E3               CONFIG:	LD	A,(MASK)	;turn keyboard mask into C.KEYM
  F08E    E6 80                 	AND	080H
  F090    F6 00                 	OR	0
  F091                          CONFG	EQU	$-1	;*****=>;This word stored by Preset
  F092    5F                    	LD	E,A
  F093    16 01                 	LD	D,REV-400	;return revision level
  F095    18 03                 	JR	RETVAL
                                ;
                                ;	GETSEL - Get address of Select table.
                                ;
  F097    11 F360               GETSEL:	LD	DE,SELTAB	;set select table address
                                ;
                                ;	RETVAL - Return Value to Caller.
                                ;
  F09A    24                    RETVAL:	INC	H		;see if high level language call
  F09B    25                    	DEC	H
  F09C    28 03                 	JR	Z,RETV1		;if assembly level call
  F09E    73                    	LD	(HL),E		;store answer in variable
  F09F    23                    	INC	HL
  F0A0    72                    	LD	(HL),D
  F0A1    EB                    RETV1:	EX	DE,HL		;leave result in HL as well
  F0A2    FB                    EIRET:	EI
  F0A3    C9                    	RET
                                ;
                                ;	SETCON - Set Configuration.
                                ;
  F0A4    7E                    SETCON:	LD	A,(HL)		;get configuration table index
  F0A5    CB BF                 	RES	7,A
  F0A7    FE 06                 	CP	NUMCON
  F0A9    D0                    	RET	NC		;if index out of range
  F0AA    5F                    	LD	E,A
  F0AB    7E                    	LD	A,(HL)		;get read/write flag
  F0AC    23                    	INC	HL
  F0AD    46                    	LD	B,(HL)		;get configuration data
  F0AE    16 00                 	LD	D,0
  F0B0    21 FFBF               	LD	HL,CONTBL	;set address of configuration table addresses
  F0B3    19                    	ADD	HL,DE
  F0B4    19                    	ADD	HL,DE
  F0B5    5E                    	LD	E,(HL)		;get configurable byte address
  F0B6    23                    	INC	HL
  F0B7    56                    	LD	D,(HL)
  F0B8    EB                    	EX	DE,HL
BALCONES OPERATING SYSTEM FOR THE XEROX 820-II   	MACRO-80 3.44	09-Dec-81	PAGE	1-17
MONITOR FUNCTION PROCESSORS

  F0B9    CB 7F                 	BIT	7,A		;set direction
  F0BB    7E                    	LD	A,(HL)		;get previous value
  F0BC    C8                    	RET	Z		;if asking current configuration
  F0BD    70                    	LD	(HL),B		;store new configuration
  F0BE    C9                    	RET
                                ;
                                ;	SSP - Start Screen Print.
                                ;
  F0BF    3E 67                 SSP:	LD	A,3+((24+1) SHL 2)	;start with CR/LF
  F0C1    32 F20E               	LD	(SPACT),A
  F0C4    AF                    	XOR	A
  F0C5    32 F224               	LD	(SPCNT),A
  F0C8    3E 81                 	LD	A,81H		;start millisecond timer
  F0CA    D3 19                 	OUT	(CTC1),A
  F0CC    C9                    	RET
                                	SUBTTL	CONSOLE / PRINTER DRIVERS
                                	PAGE
BALCONES OPERATING SYSTEM FOR THE XEROX 820-II   	MACRO-80 3.44	09-Dec-81	PAGE	1-18
CONSOLE / PRINTER DRIVERS

                                
                                	ABOVE			;run this code upstairs
  00CD"                   +     	D&SEG
                                ;
                                ;	KBDST - Keyboard Status.
                                ;
                                ;	Returns A =  0 if no character
                                ;		A = -1 if character available
                                ;
  F0CD    3A FF30               KBDST:	LD	A,(FIFCNT)	;get input FIFO bytecount
  F0D0    B7                    	OR	A
  F0D1    C8                    	RET	Z		;if keyboard queue is empty
                                ;
                                ;	SOFT - Record soft error.
                                ;
  F0D2    F6 FF                 SOFT:	OR	-1		;set ready / error status
  F0D4    C9                    	RET
                                ;
                                ;	KBDIN - Keyboard Input.
                                ;
                                ;	Returns A = character
                                ;
  F0D5    CD F066               KBDIN1:	CALL	IDLE		;idle CPU
  F0D8    CD F0CD               KBDIN:	CALL	KBDST
  F0DB    28 F8                 	JR	Z,KBDIN1	;loop until keyboard input ready
  F0DD    E5                    	PUSH	HL
  F0DE    CD F130               	CALL	REMOVE		;get keyboard entry
  F0E1    E1                    	POP	HL
  F0E2    E6 7F                 KBMASK:	AND	07FH
  F0E3                          MASK	EQU	$-1	;*****=>;this byte modified by ESC 0/1
  F0E4    C9                    	RET
                                ;
                                ;	SIOST - SIO channel B input ready status.
                                ;
  F0E5    DB 07                 SIOST:	IN	A,(SIOCPB)	;get SIO status register
  F0E7    E6 01                 	AND	00000001B
  F0E9    C8                    	RET	Z		;if no data available
  F0EA    3E FF                 	LD	A,-1
  F0EC    C9                    	RET
                                ;
                                ;	SIOIN - SIO channel B input character.
                                ;
  F0ED    CD F066               SIOIN1:	CALL	IDLE		;idle CPU
  F0F0    CD F0E5               SIOIN:	CALL	SIOST		;test console status
  F0F3    28 F8                 	JR	Z,SIOIN1	;loop until data is
  F0F5    DB 05                 	IN	A,(SIODPB)	;ready at SIO data port
  F0F7    C9                    	RET
                                ;
                                ;	SIOOUT - SIO channel B output character.
                                ;
  F0F8    F5                    SIOOUT:	PUSH	AF
  F0F9    CD F105               SIOX1:	CALL	SIORDY
  F0FC    CC F066               	CALL	Z,IDLE		;idle CPU if transmitter not ready
  F0FF    28 F8                 	JR	Z,SIOX1
  F101    F1                    	POP	AF
  F102    D3 05                 	OUT	(SIODPB),A	;output data to SIO
  F104    C9                    	RET
                                ;
                                ;	SIORDY - SIO channel B output ready ststus.
BALCONES OPERATING SYSTEM FOR THE XEROX 820-II   	MACRO-80 3.44	09-Dec-81	PAGE	1-19
CONSOLE / PRINTER DRIVERS

                                ;
  F105    3E 10                 SIORDY:	LD	A,10H		;reset status latch
  F107    D3 07                 	OUT	(SIOCPB),A
  F109    DB 07                 	IN	A,(SIOCPB)
  F10B    E6 04                 	AND	00000100B	;test TBE status bit
  F10C                          SIOMSK	EQU	$-1	;*****=>;modified at run time
  F10D    EE 04                 	XOR	00000100B
  F10E                          SIOVAL	EQU	$-1	;*****=>;modified at run time
  F10F    28 02                 	JR	Z,SIORD1	;if hardware is ready
  F111    AF                    	XOR	A
  F112    C9                    	RET
  F113    F6 FF                 SIORD1:	OR	-1		;set ready status
  F115    00                    XONENB:	NOP		;*****=>;put RET here to disable Xon/Xoff
  F116    CD F0E5               	CALL	SIOST
  F119    28 11                 	JR	Z,SIORD3	;if input not available
  F11B    CD F0F0               	CALL	SIOIN
  F11E    E6 7F                 	AND	7FH
  F120    D6 13                 	SUB	XOFF
  F122    28 05                 	JR	Z,SIORD2	;if printer said Stop
  F124    D6 FE                 	SUB	XON-XOFF
  F126    20 04                 	JR	NZ,SIORD3	;if not Resume
  F128    2F                    	CPL			;set printer ready
  F129    32 F12D               SIORD2:	LD	(XOFFLG),A
  F12C    3E FF                 SIORD3:	LD	A,-1
  F12D                          XOFFLG	EQU	$-1	;*****=>;set ^S pending flag
  F12E    B7                    	OR	A
  F12F    C9                    	RET
                                ;
                                ;	REMOVE - Remove key from FIFO.
                                ;
  F130    21 FF30               REMOVE:	LD	HL,FIFCNT	;decrement FIFO count
  F133    35                    	DEC	(HL)
  F134    21 FF32               	LD	HL,FIFOUT	;point HL to FIFO output offset
  F137    34                    INDEX:	INC	(HL)		;advance FIFO pointer
  F138    CB A6                 	RES	4,(HL)		;modulo 16
  F13A    3E 20                 	LD	A,LOW FIFO
  F13C    86                    	ADD	A,(HL)		;index into FIFO by offset
  F13D    6F                    	LD	L,A
  F13E    7E                    	LD	A,(HL)		;fetch character in FIFO
  F13F    C9                    NULINT:	RET
                                	SUBTTL	INTERRUPT SERVICE ROUTINES
                                	PAGE
BALCONES OPERATING SYSTEM FOR THE XEROX 820-II   	MACRO-80 3.44	09-Dec-81	PAGE	1-20
INTERRUPT SERVICE ROUTINES

                                
                                ;
                                ;	ISR - Interrupt Service Routines.
                                ;
                                SERVICE	MACRO
                                	LD	(SAVSTK),SP	;save user stack pointer and
                                	LD	SP,INTSTK	;switch to local stack
                                	PUSH	HL		;save machine state
                                	PUSH	AF
                                	ENDM
                                ;
                                ;	KEYSRV - Parallel Keyboard Interrupt Service.
                                ;
  F140                          KEYSRV: SERVICE			;save state
  F140    ED 73 F1EC      +     	LD	(SAVSTK),SP	;save user stack pointer and
  F144    31 FF50         +     	LD	SP,INTSTK	;switch to local stack
  F147    E5              +     	PUSH	HL		;save machine state
  F148    F5              +     	PUSH	AF
  F149    C5                    	PUSH	BC
  F14A    DB 1E                 	IN	A,(KBDDAT)	;read keyboard input port
  F14C    2F                    	CPL
  F14D    FE 9E                 	CP	SCRPRT
  F14F    20 16                 	JR	NZ,KEY2		;if not screen print key
  F151    3A F20E               	LD	A,(SPACT)
  F154    B7                    	OR	A
  F155    28 0B                 	JR	Z,KEY1		;if screen not printing now
  F157    3E 07                 	LD	A,3+(1 SHL 2)	;set state to CR/LF/stop
  F159    32 F20E               	LD	(SPACT),A	;set screen print state
  F15C    AF                    	XOR	A
  F15D    32 F224               	LD	(SPCNT),A	;restart character counter
  F160    18 2D                 	JR	KEY5
  F162    CD F0BF               KEY1:	CALL	SSP		;start screen print
  F165    18 28                 	JR	KEY5
  F167    21 FF30               KEY2:	LD	HL,FIFCNT	;bump input FIFO character count
  F16A    FE 9B                 	CP	ABORT		;check user Abort Key
  F16C    28 11                 	JR	Z,KEY3		;warm start system
  F16E    4F                    	LD	C,A
  F16F    7E                    	LD	A,(HL)
  F170    3C                    	INC	A
  F171    FE 10                 	CP	16
  F173    30 1A                 	JR	NC,KEY5		;exit now if FIFO is full
  F175    77                    	LD	(HL),A
  F176    21 FF31               	LD	HL,FIFIN	;point HL to FIFO input offset
  F179    CD F137               	CALL	INDEX
  F17C    71                    	LD	(HL),C		;store character in FIFO @ HL
  F17D    18 10                 	JR	KEY5
  F17F    CD F1EF               KEY3:	CALL	RETINS		;release PIO interrupt controller
  F182    06 03                 	LD	B,3
  F184    36 00                 KEY4:	LD	(HL),0		;clear FIFO count
  F186    2C                    	INC	L		;and FIFO in/out pointers
  F187    10 FB                 	DJNZ	KEY4
  F189    CD F293               	CALL	CRTOFF		;turn CRT memory off
  F18C    CD F003               	CALL	WARM		;and warm start system
  F18F    C1                    KEY5:	POP	BC
  F190    18 57                 	JR	RFI		;return from interrupt
                                ;
                                ;	TIMER - Once per second interrupt.
                                ;
  F192                          TIMER:	SERVICE
BALCONES OPERATING SYSTEM FOR THE XEROX 820-II   	MACRO-80 3.44	09-Dec-81	PAGE	1-21
INTERRUPT SERVICE ROUTINES

  F192    ED 73 F1EC      +     	LD	(SAVSTK),SP	;save user stack pointer and
  F196    31 FF50         +     	LD	SP,INTSTK	;switch to local stack
  F199    E5              +     	PUSH	HL		;save machine state
  F19A    F5              +     	PUSH	AF
  F19B    2A FF52               	LD	HL,(TIKCNT)	;advance binary seconds counter
  F19E    23                    	INC	HL
  F19F    22 FF52               	LD	(TIKCNT),HL
  F1A2    CD F048               	CALL	USRSEC		;invoke user's interrupt routine
  F1A5    21 FF55               	LD	HL,TIMOUT	;decrement disk turn-off timer
  F1A8    35                    	DEC	(HL)
  F1A9    20 06                 	JR	NZ,TIMER1	;exit if not timed out yet
  F1AB    DB 1C                 	IN	A,(SYSPIO)
  F1AD    E6 F8                 	AND	11111000B	;disable all drive selects which
  F1AF    D3 1C                 	OUT	(SYSPIO),A	;turns off spindle motors
  F1B1    C5                    TIMER1:	PUSH	BC
  F1B2    06 02                 	LD	B,2
  F1B4    3E 3B                 	LD	A,59
  F1B6    21 FF5B               	LD	HL,SECS		;point at wall clock
  F1B9    34                    TIMER2:	INC	(HL)		;increment seconds
  F1BA    BE                    	CP	(HL)
  F1BB    30 2B                 	JR	NC,TIMER3	;if not one minute or hour
  F1BD    36 00                 	LD	(HL),0
  F1BF    2B                    	DEC	HL
  F1C0    10 F7                 	DJNZ	TIMER2
  F1C2    3E 17                 	LD	A,23
  F1C4    34                    	INC	(HL)		;increment hours
  F1C5    BE                    	CP	(HL)
  F1C6    30 20                 	JR	NC,TIMER3	;if not one day
  F1C8    36 00                 	LD	(HL),0
  F1CA    D5                    	PUSH	DE
  F1CB    2B                    	DEC	HL
  F1CC    2B                    	DEC	HL
  F1CD    4E                    	LD	C,(HL)		;get month
  F1CE    2B                    	DEC	HL		;point to day
  F1CF    11 F1F0               	LD	DE,DPM-1	;point to day/month table
  F1D2    EB                    	EX	DE,HL
  F1D3    09                    	ADD	HL,BC
  F1D4    7E                    	LD	A,(HL)		;get number of days
  F1D5    EB                    	EX	DE,HL
  F1D6    D1                    	POP	DE
  F1D7    34                    	INC	(HL)		;increment day
  F1D8    BE                    	CP	(HL)
  F1D9    30 0D                 	JR	NC,TIMER3	;if not end of month
  F1DB    36 01                 	LD	(HL),1		;reset day in month
  F1DD    23                    	INC	HL
  F1DE    34                    	INC	(HL)		;increment month
  F1DF    3E 0B                 	LD	A,11
  F1E1    BE                    	CP	(HL)
  F1E2    30 04                 	JR	NC,TIMER3	;if not New Year's Eve
  F1E4    36 01                 	LD	(HL),1		;wrap December to January
  F1E6    23                    	INC	HL
  F1E7    34                    	INC	(HL)		;signal Guy Lombardo
  F1E8    C1                    TIMER3:	POP	BC
                                ;
                                ;	RFI - Return From Interrupt.
                                ;
  F1E9    F1                    RFI:	POP	AF
  F1EA    E1                    	POP	HL
  F1EB    31 0000               	LD	SP,0		;restore stack
  F1EC                          SAVSTK	EQU	$-2	;*****=>;this word modified at runtime
BALCONES OPERATING SYSTEM FOR THE XEROX 820-II   	MACRO-80 3.44	09-Dec-81	PAGE	1-22
INTERRUPT SERVICE ROUTINES

  F1EE    FB                    	EI			;re-enable interrupts and return
  F1EF    ED 4D                 RETINS:	RETI
                                ;
                                ;	Table of Days Per Month.
                                ;
  F1F1    1F                    DPM:	DB	31		;January
  F1F2    1C                    	DB	28		;Febuary
  F1F3    1F                    	DB	31		;March
  F1F4    1E                    	DB	30		;April
  F1F5    1F                    	DB	31		;May
  F1F6    1E                    	DB	30		;June
  F1F7    1F                    	DB	31		;July
  F1F8    1F                    	DB	31		;August
  F1F9    1E                    	DB	30		;September
  F1FA    1F                    	DB	31		;October
  F1FB    1E                    	DB	30		;November
  F1FC    1F                    	DB	31		;December
                                ;
                                ;	MILLI - Millisecond timer interrupt service.
                                ;
  F1FD                          MILLI:	SERVICE
  F1FD    ED 73 F1EC      +     	LD	(SAVSTK),SP	;save user stack pointer and
  F201    31 FF50         +     	LD	SP,INTSTK	;switch to local stack
  F204    E5              +     	PUSH	HL		;save machine state
  F205    F5              +     	PUSH	AF
  F206    2A FF50               	LD	HL,(MILSEC)
  F209    23                    	INC	HL		;increment millisecond counter
  F20A    22 FF50               	LD	(MILSEC),HL
  F20D    3E 00                 	LD	A,0		;set screen print flag
  F20E                          SPACT	EQU	$-1	;*****=>;this byte modified at runtime
  F20F    67                    	LD	H,A
  F210    E6 03                 	AND	3
  F212    28 6D                 	JR	Z,MILL6		;if not printing screen
  F214    6F                    	LD	L,A
  F215    CD F105               	CALL	SIORDY		;get printer status
  F218    28 67                 	JR	Z,MILL6		;if printer not ready
  F21A    2D                    	DEC	L
  F21B    20 48                 	JR	NZ,MILL2	;if not character print state
  F21D    DB 1C                 	IN	A,(SYSPIO)	;get PIO state
  F21F    F5                    	PUSH	AF
  F220    CD F29C               	CALL	CRTON
  F223    3E 00                 	LD	A,0		;get character count
  F224                          SPCNT	EQU	$-1	;*****=>;byte modified at runtime
  F225    3D                    	DEC	A
  F226    FA F236               	JP	M,MIL0		;if end of line
  F229    32 F224               	LD	(SPCNT),A
  F22C    21 0000               	LD	HL,0		;set next character address
  F22D                          SPADDR	EQU	$-2	;*****=>;word modified at runtime
  F22F    7E                    	LD	A,(HL)
  F230    D3 05                 	OUT	(SIODPB),A	;fire hammer
  F232    2C                    	INC	L		;advance screen cursor
  F233    AF                    	XOR	A		;do not advance state
  F234    18 22                 	JR	MILL1		;if not end of line
  F236    3E 61                 MIL0:	LD	A,1+(24 SHL 2)	;set address of next print line
  F238    94                    	SUB	H
  F239    1F                    	RRA
  F23A    CB 2F                 	SRA	A
  F23C    CD F31E               	CALL	CCA		;compute cursor address
  F23F    E5                    	PUSH	HL		;save next line address
  F240    C5                    	PUSH	BC
BALCONES OPERATING SYSTEM FOR THE XEROX 820-II   	MACRO-80 3.44	09-Dec-81	PAGE	1-23
INTERRUPT SERVICE ROUTINES

  F241    06 50                 	LD	B,80		;delete trailing blanks
  F243    7D                    	LD	A,L
  F244    80                    	ADD	A,B
  F245    6F                    	LD	L,A
  F246    2D                    MIL01:	DEC	L
  F247    7E                    	LD	A,(HL)		;get next character
  F248    E6 7F                 	AND	7FH
  F24A    FE 20                 	CP	' '
  F24C    20 02                 	JR	NZ,MIL02	;if not trailing blank
  F24E    10 F6                 	DJNZ	MIL01
  F250    78                    MIL02:	LD	A,B
  F251    32 F224               	LD	(SPCNT),A	;set number of characters to print
  F254    C1                    	POP	BC
  F255    E1                    	POP	HL
  F256    3E 03                 	LD	A,3		;set CR next state
  F258    22 F22D               MILL1:	LD	(SPADDR),HL	;set next display address
  F25B    21 F20E               	LD	HL,SPACT	;set state variable
  F25E    B6                    	OR	(HL)		;advance state
  F25F    77                    	LD	(HL),A
  F260    F1                    	POP	AF		;get PIO back
  F261    D3 1C                 	OUT	(SYSPIO),A
  F263    18 1C                 	JR	MILL6
  F265    2D                    MILL2:	DEC	L		;check next state
  F266    21 F20E               	LD	HL,SPACT	;set state address
  F269    20 11                 	JR	NZ,MILL4	;if not LF state
  F26B    7E                    	LD	A,(HL)
  F26C    D6 04                 	SUB	1 SHL 2		;advance line counter
  F26E    77                    	LD	(HL),A
  F26F    FE FE                 	CP	2-(1 SHL 2)
  F271    20 05                 	JR	NZ,MILL3
  F273    3E 01                 	LD	A,1		;disable CTC interrupt
  F275    D3 19                 	OUT	(CTC1),A
  F277    77                    	LD	(HL),A
  F278    3E 0A                 MILL3:	LD	A,LF		;set line feed
  F27A    18 02                 	JR	MILL5
  F27C    3E 0D                 MILL4:	LD	A,CR		;set carriage return
  F27E    D3 05                 MILL5:	OUT	(SIODPB),A	;move paper or carriage
  F280    35                    	DEC	(HL)
  F281    C3 F1E9               MILL6:	JP	RFI		;return from interrupt
                                	
                                	SUBTTL	CRT DRIVER
                                	PAGE
BALCONES OPERATING SYSTEM FOR THE XEROX 820-II   	MACRO-80 3.44	09-Dec-81	PAGE	1-24
CRT DRIVER

                                
                                ;
                                ;	SETCUR - Set direct display cursor position.
                                ;
  F284    22 FFAF               SETCUR:	LD	(DIRCUR),HL	;set up cursor address
  F287    C9                    	RET
                                ;
                                ;	OUTCUR - Store character directly to CRT memory.
                                ;
  F288    CD F29C               OUTCUR:	CALL	CRTON		;turn on CRT bank
  F28B    2A FFAF               	LD	HL,(DIRCUR)	;fetch direct cursor
  F28E    71                    	LD	(HL),C		;store character
  F28F    23                    	INC	HL
  F290    22 FFAF               	LD	(DIRCUR),HL
                                ;
                                ;	CRTOFF - Turn CRT RAM off.
                                ;
  F293    F3                    CRTOFF:	DI			;lock PIO access
  F294    DB 1C                 	IN	A,(SYSPIO)
  F296    CB BF                 CRTOF1:	RES	7,A		;reset CRT bank enable
  F298    FB                    	EI			;unlock PIO access
  F299    D3 1C                 CRTON1:	OUT	(SYSPIO),A
  F29B    C9                    	RET
                                ;
                                ;	CRTON - Turn CRT RAM on.
                                ;
  F29C    F3                    CRTON:	DI			;lock time-out interrupt
  F29D    DB 1C                 	IN	A,(SYSPIO)	;get PIO status
  F29F    CB FF                 	SET	7,A		;enable bank
  F2A1    18 F6                 	JR	CRTON1
                                ;
                                ;	CRTLDIR - Block move from/to CRT memory.
                                ;
                                ;	Entry:	HL = Source address
                                ;		DE = Destination address
                                ;		BC = Number of bytes to move
                                ;		A  = 0 - Move CRT RAM to CRT RAM
                                ;		A  < 0 - Move sys RAM to CRT RAM 
                                ;		A  > 0 - Move CRT RAM to sys RAM
                                ;
  F2A3    ED 73 F31B            CRTLDIR:LD	(USRSTK),SP	;do not use callers stack
  F2A7    31 FFE0               	LD	SP,CRTSTK	;since it may disappear
  F2AA    A7                    	AND	A		;set entry conditions
  F2AB    CD F29C               	CALL	CRTON
  F2AE    28 37                 	JR	Z,CRTMV		;block move within CRT RAM
  F2B0    F2 F2B5               	JP	P,LDIR2		;if move from CRT RAM to system RAM
  F2B3    EE 80                 LDIR1:	XOR	80H
  F2B5    D3 1C                 LDIR2:	OUT	(SYSPIO),A	;enable source bank
  F2B7    E5                    	PUSH	HL		;save move source address
  F2B8    21 FFB0               	LD	HL,-80		;count down one transfer buffer
  F2BB    ED 4A                 	ADC	HL,BC
  F2BD    E3                    	EX	(SP),HL		;save overflow, retrieve source address
  F2BE    FA F2C4               	JP	M,LDIR3		;if less than one buffer
  F2C1    01 0050               	LD	BC,80		;transfer one buffer
  F2C4    C5                    LDIR3:	PUSH	BC		;save byte count
  F2C5    D5                    	PUSH	DE		;save destination address
  F2C6    11 FF5C               	LD	DE,LINBUF	;set upper buffer
  F2C9    ED B0                 	LDIR			;move data to upper RAM
  F2CB    D1                    	POP	DE
BALCONES OPERATING SYSTEM FOR THE XEROX 820-II   	MACRO-80 3.44	09-Dec-81	PAGE	1-25
CRT DRIVER

  F2CC    C1                    	POP	BC
  F2CD    DB 1C                 	IN	A,(SYSPIO)	;enable destination bank
  F2CF    EE 80                 	XOR	80H
  F2D1    D3 1C                 	OUT	(SYSPIO),A
  F2D3    E5                    	PUSH	HL		;save source address
  F2D4    21 FF5C               	LD	HL,LINBUF	;set upper  buffer
  F2D7    ED B0                 	LDIR			;move data from buffer to destination
  F2D9    E1                    	POP	HL
  F2DA    C1                    	POP	BC		;retrieve bytes left to transfer
  F2DB    78                    	LD	A,B
  F2DC    A7                    	AND	A
  F2DD    FA F2E9               	JP	M,CRTMVO	;no more move, turn CRT RAM off and return
  F2E0    B1                    	OR	C
  F2E1    28 06                 	JR	Z,CRTMVO	;if no more
  F2E3    DB 1C                 	IN	A,(SYSPIO)
  F2E5    18 CC                 	JR	LDIR1		;continue transfer one buffer at a crack
  F2E7                          CRTMV:	LDIRS
  F2E7    ED B0           +     	LDIR
  F2E9    CD F293               CRTMVO:	CALL	CRTOFF		;turn CRT RAM off
  F2EC    ED 7B F31B            	LD	SP,(USRSTK)
  F2F0    C9                    	RET
                                	IF	LDIRSM
                                ;
                                ;	SIMLDIR - Simulate LDIR for broken hardware.
                                ;
                                SIMLDIR:LD	A,(HL)		;move one byte
                                	LD	(DE),A
                                	INC	HL		;advance addresses
                                	INC	DE
                                	DEC	BC		;decrement byte count
                                	LD	A,B
                                	OR	C
                                	JR	NZ,SIMLDIR	;if move incomplete
                                	RET
                                	ENDIF
                                	SUBTTL	RESIDENT CRT DRIVER.
                                	PAGE
BALCONES OPERATING SYSTEM FOR THE XEROX 820-II   	MACRO-80 3.44	09-Dec-81	PAGE	1-26
RESIDENT CRT DRIVER.

                                
                                ;
                                ;	CRTOUT - CRT Output Driver.
                                ;
                                ;	Entry:	Character in register A
                                ;		16 bytes of stack space available
                                ;	Exit:	Character displayed, all registers saved
                                ;
  F2F1    E5                    CRTOUT:	PUSH	HL		;maintain users registers on his stack
  F2F2    D5                    	PUSH	DE
  F2F3    C5                    	PUSH	BC
  F2F4    F5                    	PUSH	AF
  F2F5    4F                    	LD	C,A		;set character to process
  F2F6    CD F2FE               	CALL	FASTCRT		;process character quickly
  F2F9    F1                    	POP	AF		;restore callers registers
  F2FA    C1                    	POP	BC
  F2FB    D1                    	POP	DE
  F2FC    E1                    	POP	HL
  F2FD    C9                    	RET
                                ;
                                ;	FASTCRT - Fast CRT driver.
                                ;
                                ;	Entry:	Character in C
                                ;	Exit:	The only register preserved is SP
                                ;		Peeking in register A reveals valuable characters.
                                ;
  F2FE    ED 73 F31B            FASTCRT:LD	(USRSTK),SP	;do not use callers stack
  F302    31 FFE0               	LD	SP,CRTSTK	;since it may disappear
  F305    DD E5                 	PUSH	IX		;since PLINK ignores register usage rules
  F307    DB 1C                 	IN	A,(SYSPIO)	;read system PIO
  F309    B7                    	OR	A		;set bank enable status
  F30A    F5                    	PUSH	AF		;save status for exit code
  F30B    CD F29C               	CALL	CRTON		;turn on CRT memory
  F30E    FB                    	EI			;enable interrupts
  F30F    CD 0169               	CALL	CRTDVR		;execute CRT driver ROM
  F312    F1                    	POP	AF		;get previous bank enable status
  F313    F4 F293               	CALL	P,CRTOFF	;disable bank now if it was disabled on entry
  F316    DD E1                 	POP	IX
  F318    3E 00                 	LD	A,0		;sneak balcones golden characters to FAST users
  F319                          GOLD	EQU	$-1
  F31A    31 F31B               	LD	SP,USRSTK	;restore callers stack
  F31B                          USRSTK	EQU	$-2	;*****=>;this operand word is modified at runtime
  F31D    C9                    	RET
                                ;
                                ;	CCA - Compute Cursor Address.
                                ;
                                ;	Entry:	A = Row
                                ;
  F31E    67                    CCA:	LD	H,A
  F31F    3A FFB1               	LD	A,(BASE)
  F322    84                    	ADD	A,H
  F323    3C                    CCA1:	INC	A		;entry with base absolute
  F324    D6 18                 CCA2:	SUB	24		;ditto
  F326    30 FC                 	JR	NC,CCA2
  F328    C6 78                 	ADD	A,24+2*CRTBAS
  F32A    67                    	LD	H,A
  F32B    2E 00                 	LD	L,0
  F32D    CB 2C                 	SRA	H
  F32F    CB 1D                 	RR	L
BALCONES OPERATING SYSTEM FOR THE XEROX 820-II   	MACRO-80 3.44	09-Dec-81	PAGE	1-27
RESIDENT CRT DRIVER.

  F331    C9                    	RET
                                ;
                                ;	RSTATT - Restore Previous Attribute.
                                ;
  F332    01 0000               RSTATT:	LD	BC,0		;execute previous attribute routine
  F333                          LSTATT	EQU	$-2
  F335    C5                    	PUSH	BC
  F336    C9                    	RET
  F337    E5                    SETPRV:	PUSH	HL
  F338    21 01CF               	LD	HL,SETLOW
  F339                          PRVATT	EQU	$-2
  F33B    22 F333               	LD	(LSTATT),HL
  F33E    ED 43 F339            	LD	(PRVATT),BC
  F342    E1                    	POP	HL
  F343    C9                    	RET
                                	SUBTTL	ROM-RESIDENT CRT DRIVER
                                	PAGE
BALCONES OPERATING SYSTEM FOR THE XEROX 820-II   	MACRO-80 3.44	09-Dec-81	PAGE	1-28
ROM-RESIDENT CRT DRIVER

                                
                                	BELOW			;execute in banked ROM
  0000!                   +     	DEFS	COMRES
                                ;
                                ;	CRTDVR - Crt Driver Proper.
                                ;
  0169    2A FFAC               CRTDVR:	LD	HL,(CURSOR)	;set cursor address
  016C    3A FFB4               	LD	A,(CHRSAV)	;retrieve character under cursor
  016F    77                    	LD	(HL),A		;replace character under cursor
  0170    32 F319               	LD	(GOLD),A	;bury balcones gold
  0173    3A FFB2               	LD	A,(LEADIN)	;set leadin state
  0176    B7                    	OR	A
  0177    20 1D                 	JR	NZ,CRTD2	;if processing escape sequence
  0179    3A F0E3               	LD	A,(MASK)	;get keyboard mask
  017C    A1                    	AND	C
  017D    4F                    	LD	C,A
  017E    FE 20                 	CP	' '
  0180    38 14                 	JR	C,CRTD2		;if control code
  0182    3A FFB3               CRTD1:	LD	A,(ATTRIB)
  0185    B1                    	OR	C
  0186    77                    	LD	(HL),A		;store displayable character
  0187    2C                    	INC	L		;advance pointer to next column
  0188    7D                    	LD	A,L
  0189    E6 7F                 	AND	01111111B	;extract column# from HL
  018B    FE 50                 	CP	80
  018D    38 0A                 	JR	C,CRTD3		;if end of line not reached
  018F    AD                    	XOR	L
  0190    6F                    	LD	L,A		;return cursor to left side
  0191    CD 02F7               	CALL	LFEED		;execute line feed
  0194    18 03                 	JR	CRTD3
  0196    CD 023D               CRTD2:	CALL	CONTRL		;process control character
  0199    22 FFAC               CRTD3:	LD	(CURSOR),HL	;save cursor pointer for next time
  019C    7E                    	LD	A,(HL)		;get character at new cursor location
  019D    32 FFB4               	LD	(CHRSAV),A	;save for next time 'CRTOUT' is called
  01A0    3A FFAE               	LD	A,(CSRCHR)	;get cursor character
  01A3    FE 20                 	CP	' '
  01A5    C8                    	RET	Z		;if no cursor
  01A6    4F                    	LD	C,A
  01A7    7E                    	LD	A,(HL)
  01A8    CB BF                 	RES	7,A
  01AA    FE 20                 	CP	' '
  01AC    79                    	LD	A,C		;set character used for cursor
  01AD    28 03                 	JR	Z,CRTD4		;if character is a space
  01AF    7E                    	LD	A,(HL)		;toggle attribute
  01B0    EE 80                 	XOR	80H
  01B2    77                    CRTD4:	LD	(HL),A		;store cursor character
  01B3    C9                    	RET
                                ;
                                ;	MULTI - Process multiple character escape sequence.
                                ;
  01B4    EB                    MULTI:	EX	DE,HL		;unconditionally reset the lead-in
  01B5    36 00                 	LD	(HL),0		;state to zero
  01B7    EB                    	EX	DE,HL
  01B8    3D                    	DEC	A
  01B9    20 4E                 	JR	NZ,SETXY1	;if not initial state
  01BB    79                    	LD	A,C		;get second character of sequence
                                	IF	(OPTIONS AND O.ESCT) EQ 0
                                	CP	'='
                                	JR	NZ,MULTI1
BALCONES OPERATING SYSTEM FOR THE XEROX 820-II   	MACRO-80 3.44	09-Dec-81	PAGE	1-29
ROM-RESIDENT CRT DRIVER

                                	LD	A,2
                                	LD	(DE),A
                                	RET
                                MULTI1:	POP	AF		;pitch return address
                                	JR	CRTD1
                                	ENDIF
                                	IF	(OPTIONS AND O.ESCT) NE 0
                                ;
                                ;	Escape table search
                                ;
  01BC    E5                    	PUSH	HL
  01BD    21 028A               	LD	HL,ESCTAB
  01C0    01 0011               	LD	BC,ESCTBL
  01C3    ED B1                 SEARCH:	CPIR
  01C5    09                    	ADD	HL,BC
  01C6    09                    	ADD	HL,BC
  01C7    09                    	ADD	HL,BC
  01C8    4E                    	LD	C,(HL)
  01C9    23                    	INC	HL
  01CA    46                    	LD	B,(HL)
  01CB    E1                    	POP	HL
  01CC    C0                    	RET	NZ
  01CD    C5                    	PUSH	BC
  01CE    C9                    	RET
                                	ENDIF			;options and o.esct
                                ;
                                ;	Set attribute modes.
                                ;
  01CF    D3 36                 SETLOW:	OUT	(LOWLITE),A	;set low-light mode
  01D1    C3 F337               	JP	SETPRV
  01D4    D3 35                 SETBLI:	OUT	(CHROM2),A	;select ROM 2
  01D6    AF                    	XOR	A		;select standard character set
  01D7    18 08                 	JR	MODE1
  01D9    D3 35                 SETINV:	OUT	(CHROM2),A	;select ROM 2
  01DB    18 02                 	JR	MODE	
  01DD    D3 34                 SETGRA:	OUT	(CHROM1),A	;select ROM 1
  01DF    3E 40                 MODE:	LD	A,40H		;select alternate character set
  01E1    CD F337               MODE1:	CALL	SETPRV		;set up previous attribute
  01E4    47                    	LD	B,A
  01E5    F3                    	DI			;lock system
  01E6    DB 1C                 	IN	A,(SYSPIO)	;read system PIO
  01E8    CB B7                 	RES	6,A		;clear ROM select bit
  01EA    B0                    	OR	B
  01EB    FB                    	EI			;unlock
  01EC    D3 1C                 	OUT	(SYSPIO),A	;set or reset display mode
  01EE    C9                    	RET
                                ;
                                ;	Enable/disable (D7) display of selected attribute mode
                                ;
  01EF    3E 80                 ENATR:	LD	A,80H
                                ;	JR	DIS1
  01F1    06                    	DB	6 ;LD B,	;skip XOR
  01F2    AF                    DISATR:	XOR	A
  01F3    32 FFB3               DIS1:	LD	(ATTRIB),A
  01F6    C9                    	RET
                                ;
                                ;	SETMSK - Select 7 or 8 bit data from keyboard
                                ;
  01F7    0F                    SETMSK:	RRCA			;get low order bit as upper bit mask
  01F8    F6 7F                 	OR	7FH
BALCONES OPERATING SYSTEM FOR THE XEROX 820-II   	MACRO-80 3.44	09-Dec-81	PAGE	1-30
ROM-RESIDENT CRT DRIVER

  01FA    4F                    	LD	C,A
  01FB    11 F0E3               	LD	DE,MASK
  01FE    1A                    	LD	A,(DE)
  01FF    32 F319               	LD	(GOLD),A	;stash balcones gold
  0202    79                    	LD	A,C
  0203    12                    	LD	(DE),A		;store keyboard mask
  0204    C9                    	RET
                                ;
                                ;	Process cursor position sequence.
                                ;
  0205    3E 02                 SETXY:	LD	A,2
  0207    12                    	LD	(DE),A		;make leadin=2 next time
  0208    C9                    	RET
  0209    3D                    SETXY1:	DEC	A
  020A    20 10                 	JR	NZ,M3TST	;if not in state 2
  020C    6F                    	LD	L,A		;clear low cursor pos
  020D    3E 03                 	LD	A,3
  020F    12                    	LD	(DE),A		;set state 3 for next time
  0210    79                    SETROW:	LD	A,C
  0211    E6 7F                 	AND	07FH		;strip parity bit
  0213    D6 20                 	SUB	' '
  0215    D8                    	RET	C		;if illegal character
  0216    FE 18                 	CP	24
  0218    D0                    	RET	NC
  0219    C3 F31E               	JP	CCA		;compute cursor address
  021C    3D                    M3TST:	DEC	A
  021D    20 0C                 	JR	NZ,M4TST	;if not ready for column
  021F    79                    SETCOL:	LD	A,C
  0220    E6 7F                 	AND	07FH		;strip parity bit
  0222    D6 20                 	SUB	' '		; of esc,'=',row,col sequence
  0224    D8                    	RET	C
  0225    FE 50                 	CP	80
  0227    D0                    	RET	NC
  0228    B5                    	OR	L		;merge in col# with L
  0229    6F                    	LD	L,A
  022A    C9                    	RET
  022B    3D                    M4TST:	DEC	A
  022C    20 04                 	JR	NZ,M5TST	;if not escape state 4
  022E    D1                    	POP	DE		;pitch address of CRT D3
  022F    C3 0182               	JP	CRTD1		;display character in C
  0232    3A FFAE               M5TST:	LD	A,(CSRCHR)
  0235    32 F319               	LD	(GOLD),A	;stash balcones gold
  0238    79                    	LD	A,C
  0239    32 FFAE               	LD	(CSRCHR),A	;store new cursor character
  023C    C9                    	RET
                                ;
                                ;	CONTRL - Process control character.
                                ;
  023D    11 FFB2               CONTRL:	LD	DE,LEADIN	;point at leadin state
  0240    D2 01B4               	JP	NC,MULTI	;if multi code sequence in progress
  0243    FE 05                 	CP	'E'-64
  0245    D8                    	RET	C		;control character is out of range
  0246    E5                    	PUSH	HL		;save cursor
  0247    21 024A               	LD	HL,CTLTAB-('E'-64)*2
  024A    06 00                 	LD	B,0
  024C    09                    	ADD	HL,BC		;index through control character table
  024D    09                    	ADD	HL,BC
  024E    4E                    	LD	C,(HL)
  024F    23                    	INC	HL
  0250    46                    	LD	B,(HL)		;get address of control subroutine
BALCONES OPERATING SYSTEM FOR THE XEROX 820-II   	MACRO-80 3.44	09-Dec-81	PAGE	1-31
ROM-RESIDENT CRT DRIVER

  0251    E1                    	POP	HL
  0252    C5                    	PUSH	BC
  0253    C9                    	RET			;execute control code driver
                                	IF	(OPTIONS AND O.ESCT) EQ 0
                                CTLTAB:	DEFW	DEFCUR		;Ctrl-e is define new cursor character
                                	DEFW	RSTATT		;Ctrl-f is restore previous attribute mode
                                	DEFW	BELL		;Ctrl-g is the bell
                                	DEFW	BAKSPC		;Ctrl-h is cursor left
                                	DEFW	TAB		;Ctrl-i is tab
                                	DEFW	LFEED		;Ctrl-j is cursor down
                                	DEFW	UPCSR		;Ctrl-k is cursor up
                                	DEFW	FORSPC		;Ctrl-l is cursor right
                                	DEFW	RETURN		;Ctrl-m is carriage return
                                	DEFW	SETMSK		;Ctrl-n is strip keyboard upper bit
                                	DEFW	SETMSK		;Ctrl-o is pass keyboard upper bit
                                	DEFW	ENATR		;Ctrl-p is enable screen upper bit
                                	DEFW	CLREOS		;Ctrl-q is clear to end-of-screen
                                	DEFW	SETLOW		;Ctrl-r is set lo-lite mode
                                	DEFW	SETINV		;Ctrl-s is set inverse video mode
                                	DEFW	SETGRA		;Ctrl-t is set graphics mode
                                	DEFW	SETBLI		;Ctrl-u is set blinking mode
                                	DEFW	LININS		;Ctrl-v is line insert
                                	DEFW	LINDEL		;Ctrl-w is line delete
                                	DEFW	CLREOL		;Ctrl-x is clear to end-of-line
                                	DEFW	DISATR		;Ctrl-y is disable screen upper bit
                                	DEFW	CLRSCN		;Ctrl-z is clear screen
                                	DEFW	ESCAPE		;Ctrl-[ is escape
                                	DEFW	CHRINS		;Ctrl-\ is character insert
                                	DEFW	CHRDEL		;Ctrl-] is character delete
                                	DEFW	HOMEUP		;Ctrl-^ is home up
                                	DEFW	STUFF		;Ctrl-_ is display control chars
                                CTLSIZ	EQU	$-CTLTAB
                                	ENDIF			;options and o.esct
                                	IF	(OPTIONS AND O.ESCT) NE 0
  0254    02C5                  CTLTAB:	DEFW	DEFCUR		;Ctrl-e is define new cursor character
  0256    F332                  	DEFW	RSTATT		;Ctrl-f is restore previous attribute mode
  0258    032F                  	DEFW	BELL		;Ctrl-g is the bell
  025A    02CE                  	DEFW	BAKSPC		;Ctrl-h is cursor left
  025C    031F                  	DEFW	TAB		;Ctrl-i is tab
  025E    02F7                  	DEFW	LFEED		;Ctrl-j is cursor down
  0260    02DC                  	DEFW	UPCSR		;Ctrl-k is cursor up
  0262    02D4                  	DEFW	FORSPC		;Ctrl-l is cursor right
  0264    02F2                  	DEFW	RETURN		;Ctrl-m is carriage return
  0266    02C0                  	DEFW	NONO		;Ctrl-n is not acceptable
  0268    02C0                  	DEFW	NONO		;Ctrl-o is not acceptable
  026A    02C0                  	DEFW	NONO		;Ctrl-p is not acceptable
  026C    0361                  	DEFW	CLREOS		;Ctrl-q is clear to end-of-screen
  026E    02C0                  	DEFW	NONO		;Ctrl-r is not acceptable
  0270    02C0                  	DEFW	NONO		;Ctrl-s is not acceptable
  0272    02C0                  	DEFW	NONO		;Ctrl-t is not acceptable
  0274    02C0                  	DEFW	NONO		;Ctrl-u is not acceptable
  0276    02C0                  	DEFW	NONO		;Ctrl-v is not acceptable
  0278    02C0                  	DEFW	NONO		;Ctrl-w is not acceptable
  027A    0344                  	DEFW	CLREOL		;Ctrl-x is clear to end-of-line
  027C    02C0                  	DEFW	NONO		;Ctrl-y is not acceptable
  027E    0357                  	DEFW	CLRSCN		;Ctrl-z is clear screen
  0280    02BD                  	DEFW	ESCAPE		;Ctrl-[ is escape
  0282    02C0                  	DEFW	NONO		;Ctrl-\ is not acceptable
  0284    02C0                  	DEFW	NONO		;Ctrl-] is not acceptable
  0286    02C9                  	DEFW	HOMEUP		;Ctrl-^ is home up
BALCONES OPERATING SYSTEM FOR THE XEROX 820-II   	MACRO-80 3.44	09-Dec-81	PAGE	1-32
ROM-RESIDENT CRT DRIVER

  0288    02C1                  	DEFW	STUFF		;Ctrl-_ is display control chars
  0036                          CTLSIZ	EQU	$-CTLTAB
                                ;
                                ;	Escape sequence table.
                                ;
                                ;	Maintains functional compatibility with terminals supporting
                                ;	ADM-3a style supersets.
                                ;
  028A    28                    ESCTAB:	DB	'('		;disable attribute (Soroc/Televideo, et.al)
  028B    29                    	DB	')'		;enable atribute (Soroc/Televideo, et.al)
  028C    2A                    	DB	'*'		;clear screen (Soroc/Televideo, et.al)
  028D    30                    	DB	'0'		;strip keyboard upper bit
  028E    31                    	DB	'1'		;pass keyboard upper bit
  028F    34                    	DB	'4'		;char font and blinking
  0290    35                    	DB	'5'		;char font and graphics
  0291    36                    	DB	'6'		;char font and blinking
  0292    37                    	DB	'7'		;char font and inverse video
  0293    38                    	DB	'8'		;char font and lo-light
  0294    3D                    	DB	'='		;position cursor
  0295    45                    	DB	'E'		;line insert (Televideo, et.al)
  0296    51                    	DB	'Q'		;character insert (Televideo, et. al)
  0297    52                    	DB	'R'		;line delete (Televideo, et. al)
  0298    57                    	DB	'W'		;character delete (Televideo, et. al)      
  0299    54                    	DB	'T'		;clear to end of line (Televideo, et. al)
  029A    59                    	DB	'Y'		;clear to end of screen (Televideo, et. al)
  0011                          ESCTBL	EQU	$-ESCTAB
  029B    0361                  ESCADR:	DEFW	CLREOS
  029D    0344                  	DEFW	CLREOL
  029F    03F5                  	DEFW	CHRDEL
  02A1    037C                  	DEFW	LINDEL
  02A3    03DC                  	DEFW	CHRINS
  02A5    03A4                  	DEFW	LININS
  02A7    0205                  	DEFW	SETXY
  02A9    01CF                  	DEFW	SETLOW
  02AB    01D9                  	DEFW	SETINV
  02AD    01D4                  	DEFW	SETBLI
  02AF    01DD                  	DEFW	SETGRA
  02B1    01D4                  	DEFW	SETBLI
  02B3    01F7                  	DEFW	SETMSK
  02B5    01F7                  	DEFW	SETMSK
  02B7    0357                  	DEFW	CLRSCN
  02B9    01EF                  	DEFW	ENATR
  02BB    01F2                  	DEFW	DISATR
                                	IF1
                                	IF	($-ESCADR)/2 NE ESCTBL
                                	.PRINTX	ESCAPE TABLE MISMATCH
                                	ENDIF
                                	ENDIF
                                	ENDIF			;o.esct and options
                                ;
                                ;	ESCAPE - Initialize escape sequence.
                                ;
  02BD    3E 01                 ESCAPE:	LD	A,1
  02BF    12                    	LD	(DE),A		;set sequence state
  02C0    C9                    NONO:	RET			;for escape processing
                                ;
                                ;	STUFF - Enable next char to be stored directly.
                                ;
  02C1    3E 04                 STUFF:	LD	A,4
  02C3    12                    	LD	(DE),A		;set sequence state
BALCONES OPERATING SYSTEM FOR THE XEROX 820-II   	MACRO-80 3.44	09-Dec-81	PAGE	1-33
ROM-RESIDENT CRT DRIVER

  02C4    C9                    	RET			;for control character output mode
                                ;
                                ;	DEFCUR - Enable next chara to be new cursor.
                                ;
  02C5    3E 05                 DEFCUR:	LD	A,5
  02C7    12                    	LD	(DE),A
  02C8    C9                    	RET
                                ;
                                ;	HOMEUP - Move cursor to upper left.
                                ;
  02C9    0E 20                 HOMEUP:	LD	C,' '		;use cursor addressing routine
  02CB    C3 0210               	JP	SETROW		;to do homeup almost for free
                                ;
                                ;	BAKSPC - Move cursor left.
                                ;
  02CE    7D                    BAKSPC:	LD	A,L		;check for left margin
  02CF    E6 7F                 	AND	01111111B
  02D1    C8                    	RET	Z		;abort if in leftmost column
  02D2    2D                    	DEC	L		;back up cursor pointer
  02D3    C9                    	RET
                                ;
                                ;	FORSPC - Move cursor right.
                                ;
  02D4    7D                    FORSPC:	LD	A,L		;check for rightmost colunm
  02D5    E6 7F                 	AND	01111111B
  02D7    FE 4F                 	CP	79
  02D9    D0                    	RET	NC		;do nothing if already there
  02DA    2C                    	INC	L
  02DB    C9                    	RET			;else advance the cursor pointer
                                ;
                                ;	UPSCR - Move cursor up.
                                ;
  02DC    11 FF80               UPCSR:	LD	DE,-128		;subtract 1 from row# component
  02DF    19                    	ADD	HL,DE		; of cursor pointer in HL
  02E0    7C                    	LD	A,H
  02E1    FE 30                 	CP	CRTBAS		;check for underflow of pointer
  02E3    D0                    	RET	NC
  02E4    26 3B                 	LD	H,CRTTOP-1	;wrap cursor around modulo 3k
  02E6    C9                    	RET
                                ;
                                ;	DNCSR - Move cursor down.
                                ;
  02E7    11 0080               DNCSR:	LD	DE,128		;add 1 to row# component
  02EA    19                    	ADD	HL,DE		; of cursor pointer in HL
  02EB    7C                    	LD	A,H
  02EC    FE 3C                 	CP	CRTTOP		;check for overflow of pointer
  02EE    D8                    	RET	C
  02EF    26 30                 	LD	H,CRTBAS	;reset pointer modulo 128*24
  02F1    C9                    	RET
                                ;
                                ;	RETURN - Move cursor to left side.
                                ;
  02F2    7D                    RETURN:	LD	A,L		;clear column
  02F3    E6 80                 	AND	10000000B
  02F5    6F                    	LD	L,A		;move cursor pointer back
  02F6    C9                    	RET			; to start of line
                                ;
                                ;	LFEED - Move cursor down with scroll.
                                ;
  02F7    7D                    LFEED:	LD	A,L
BALCONES OPERATING SYSTEM FOR THE XEROX 820-II   	MACRO-80 3.44	09-Dec-81	PAGE	1-34
ROM-RESIDENT CRT DRIVER

  02F8    17                    	RLA
  02F9    7C                    	LD	A,H
  02FA    17                    	RLA			;extract row# component of HL
  02FB    E6 1F                 	AND	00011111B
  02FD    4F                    	LD	C,A		;copy row# into C for scroll test
  02FE    CD 02E7               	CALL	DNCSR		;move cursor to next row down
  0301    3A FFB1               	LD	A,(BASE)	;test if cursor was on bottom row
  0304    91                    	SUB	C		;of screen before moving down
  0305    32 F319               	LD	(GOLD),A	;send scroll flag back to fast users
  0308    C0                    	RET	NZ		;exit if not at bottom
  0309    E5                    	PUSH	HL		;prepare scroll screen up
  030A    3A F31C               	LD	A,(USRSTK+1)
  030D    3C                    	INC	A
  030E    C4 040F               	CALL	NZ,BBG		;bury balcones gold, unless monitor running
  0311    CD 0341               	CALL	CLRLIN		;fill top line with spaces
  0314    29                    	ADD	HL,HL
  0315    7C                    	LD	A,H		;get row# component of HL into A
  0316    E6 1F                 	AND	00011111B
  0318    32 FFB1               	LD	(BASE),A	;store new base line#
  031B    D3 14                 	OUT	(SCROLL),A	;scroll top line to bottom
  031D    E1                    	POP	HL		;restore cursor
  031E    C9                    	RET
                                ;
                                ;	TAB - Move cursor to next tab stop.
                                ;
  031F    11 0008               TAB:	LD	DE,8		;tabs are every 8 columns
  0322    7D                    	LD	A,L		;get column component of
  0323    E6 78                 	AND	01111000B	;previous tab position
  0325    83                    	ADD	A,E
  0326    FE 50                 	CP	80
  0328    D0                    	RET	NC		;if next tab column past end of line
  0329    7D                    	LD	A,L
  032A    E6 F8                 	AND	11111000B	;advance cursor to next tab stop
  032C    6F                    	LD	L,A
  032D    19                    	ADD	HL,DE
  032E    C9                    	RET
                                ;
                                ;	BELL - Move speaker back and forth.
                                ;
  032F    3E 35                 BELL:	LD	A,BLTIM		;Bell time constant
  0331    D3 29                 BELL1:	OUT	(BELLON),A	;push speaker out
  0333    06 61                 	LD	B,BLONC		;set Bell on time constant
  0335    10 FE                 	DJNZ	$		;pause B*2 micro seconds
  0337    D3 28                 	OUT	(BELLOF),A	;yank speaker in
  0339    06 61                 	LD	B,BLOFC		;set Bell off time constant
  033B    10 FE                 	DJNZ	$
  033D    3D                    	DEC	A
  033E    20 F1                 	JR	NZ,BELL1	;if more noise to make
  0340    C9                    	RET
                                ;
                                ;	CLRLIN - Clear line.
                                ;
  0341    CD 02F2               CLRLIN:	CALL	RETURN		;return cursor and fall through clreol
                                ;
                                ;	CLREOL - Clear to end of line.
                                ;
  0344    7D                    CLREOL:	LD	A,L
  0345    E6 7F                 	AND	01111111B	;get column component of cursor posistion
  0347    FE 50                 	CP	80
  0349    D0                    	RET	NC		;if someone busted curpos
BALCONES OPERATING SYSTEM FOR THE XEROX 820-II   	MACRO-80 3.44	09-Dec-81	PAGE	1-35
ROM-RESIDENT CRT DRIVER

  034A    ED 44                 	NEG
  034C    C6 50                 	ADD	A,80		;calculate number of characters to clear
  034E    47                    	LD	B,A
  034F    7D                    	LD	A,L		;save cursor column
  0350    36 20                 CLR1:	LD	(HL),' '	;clear next location
  0352    2C                    	INC	L
  0353    10 FB                 	DJNZ	CLR1		;if end of line not clear
  0355    6F                    	LD	L,A		;restore cursor column
  0356    C9                    	RET
                                ;
                                ;	CLRSCN - Clear visible screen memory.
                                ;
  0357    21 3000               CLRSCN:	LD	HL,CRTMEM	;home cursor
  035A    3E 17                 	LD	A,23
  035C    32 FFB1               	LD	(BASE),A	;put line 23 at bottom of screen
  035F    D3 14                 	OUT	(SCROLL),A	;note scroll register gets A8-A12, not d0-d7
                                ;
                                ;	CLREOS - Clear to end of screen.
                                ;
  0361    CD 0344               CLREOS:	CALL	CLREOL		;clear remainder of current row
  0364    E5                    	PUSH	HL		;save cursor location
  0365    ED 4B FFB1            CLRS1:	LD	BC,(BASE)	;set bottom screen row to C
  0369    7D                    	LD	A,L
  036A    17                    	RLA
  036B    7C                    	LD	A,H
  036C    17                    	RLA			;get row# component of HL into A
  036D    E6 1F                 	AND	00011111B
  036F    B9                    	CP	C
  0370    28 08                 	JR	Z,CLRS2		;if HL is on bottom row of screen
  0372    CD 02E7               	CALL	DNCSR		;point HL to next row
  0375    CD 0341               	CALL	CLRLIN		;and fill that line with spaces
  0378    18 EB                 	JR	CLRS1
  037A    E1                    CLRS2:	POP	HL		;restore original cursor pointer
  037B    C9                    	RET
                                ;
                                ;	LINDEL - Line delete.
                                ;
  037C    E5                    LINDEL:	PUSH	HL		;save cursor address
  037D    CD 040F               	CALL	BBG		;bury balcones gold
  0380    29                    	ADD	HL,HL
  0381    7C                    	LD	A,H
  0382    E6 1F                 	AND	00011111B	;extract row
  0384    ED 4B FFB0            	LD	BC,(BASE-1)	;get base screen row in B
  0388    CD 03D1               LIND1:	CALL	SMP		;set move parameters
  038B    B8                    	CP	B
  038C    28 10                 	JR	Z,LIND2		;if last line
  038E    C5                    	PUSH	BC		;B=last line, C=row
  038F    01 0050               	LD	BC,80
                                	LDIRS
  0392    ED B0           +     	LDIR
  0394    C1                    	POP	BC
  0395    79                    	LD	A,C
  0396    3C                    	INC	A
  0397    FE 18                 	CP	24
  0399    38 ED                 	JR	C,LIND1
  039B    AF                    	XOR	A		;wrap
  039C    18 EA                 	JR	LIND1		;move next line
  039E    EB                    LIND2:	EX	DE,HL
  039F    CD 0341               LIND3:	CALL	CLRLIN
  03A2    E1                    	POP	HL		;restore original cursor
BALCONES OPERATING SYSTEM FOR THE XEROX 820-II   	MACRO-80 3.44	09-Dec-81	PAGE	1-36
ROM-RESIDENT CRT DRIVER

  03A3    C9                    	RET
                                ;
                                ;	LININS - Line insert.
                                ;
  03A4    E5                    LININS:	PUSH	HL		;save cursor position
  03A5    3E 17                 	LD	A,23		;get bottom line
  03A7    CD F31E               	CALL	CCA		;compute cursor address
  03AA    CD 040F               	CALL	BBG		;bury balcones gold
  03AD    E1                    	POP	HL
  03AE    E5                    	PUSH	HL
  03AF    29                    	ADD	HL,HL
  03B0    7C                    	LD	A,H
  03B1    E6 1F                 	AND	00011111B	;extract cursor row
  03B3    47                    	LD	B,A
  03B4    3A FFB1               	LD	A,(BASE)	;set last line
  03B7    B8                    LINI1:	CP	B
  03B8    28 13                 	JR	Z,LINI3		;if move complete
  03BA    3D                    	DEC	A
  03BB    F2 03C0               	JP	P,LINI2
  03BE    3E 17                 	LD	A,23
  03C0    CD 03D1               LINI2:	CALL	SMP		;set move parameters
  03C3    EB                    	EX	DE,HL
  03C4    C5                    	PUSH	BC
  03C5    01 0050               	LD	BC,80
                                	LDIRS
  03C8    ED B0           +     	LDIR
  03CA    C1                    	POP	BC
                                	IF	LDIRSM
                                	LD	A,C
                                	ENDIF
  03CB    18 EA                 	JR	LINI1		;move next line
  03CD    E1                    LINI3:	POP	HL
  03CE    E5                    	PUSH	HL		;restore cursor
  03CF    18 CE                 	JR	LIND3		;clear cursor line
                                ;
                                ;	SMP - Set move parameters.
                                ;
  03D1    4F                    SMP:	LD	C,A		;save row
                                	IF	0
                                	LD	L,0
                                	LD	E,L
                                	ADD	A,CRTBAS SHL 1	;set screen address
                                	LD	D,A
                                	RR	D
                                	RR	E		;destination address
                                	INC	A		;advance row
                                	LD	H,A
                                	RR	H
                                	RR	L
                                	CP	CRTBAS*2+24
                                	JR	NZ,SMP2		;if not on last line
                                	LD	H,CRTBAS
                                SMP2:
                                	ELSE
  03D2    CD F324               	CALL	CCA2
  03D5    EB                    	EX	DE,HL
  03D6    79                    	LD	A,C
  03D7    CD F323               	CALL	CCA1
                                	ENDIF
  03DA    79                    	LD	A,C
BALCONES OPERATING SYSTEM FOR THE XEROX 820-II   	MACRO-80 3.44	09-Dec-81	PAGE	1-37
ROM-RESIDENT CRT DRIVER

  03DB    C9                    	RET
                                ;
                                ;	CHRINS - Character insert.
                                ;
  03DC    E5                    CHRINS:	PUSH	HL
  03DD    7D                    	LD	A,L		;set cursor column
  03DE    E6 7F                 	AND	01111111B	;set move length = 79-column
  03E0    ED 44                 	NEG
  03E2    C6 4F                 	ADD	A,79
  03E4    47                    	LD	B,A		;number of characters to move
  03E5    7E                    	LD	A,(HL)		;get character under cursor
  03E6    36 20                 	LD	(HL),' '	;clear character under cursor
  03E8    28 06                 	JR	Z,CHRIN2	;if cursor in last column
  03EA    2C                    CHRIN1:	INC	L
  03EB    4E                    	LD	C,(HL)
  03EC    77                    	LD	(HL),A
  03ED    79                    	LD	A,C
  03EE    10 FA                 	DJNZ	CHRIN1
  03F0    32 F319               CHRIN2:	LD	(GOLD),A	;shift line into the gold mine
  03F3    E1                    	POP	HL
  03F4    C9                    	RET
                                ;
                                ;	CHRDEL - Character delete.
                                ;
  03F5    E5                    CHRDEL:	PUSH	HL
  03F6    7D                    	LD	A,L
  03F7    E6 7F                 	AND	01111111B	;isolate cursor column
  03F9    ED 44                 	NEG
  03FB    C6 4F                 	ADD	A,79
  03FD    4F                    	LD	C,A		;number of chars to move = 79-column
  03FE    06 00                 	LD	B,0
  0400    54                    	LD	D,H
  0401    5D                    	LD	E,L
  0402    1A                    	LD	A,(DE)
  0403    32 F319               	LD	(GOLD),A	;mine balcones gold
  0406    23                    	INC	HL
                                	IF	LDIRSM
                                	CALL	NZ,SIMLDIR	;if cursor not in last column
                                	ELSE
  0407    C4 0418               	CALL	NZ,LDIRX
                                	ENDIF
  040A    EB                    	EX	DE,HL
  040B    36 20                 	LD	(HL),' '	;blank last character on line
  040D    E1                    	POP	HL		;restore cursor
  040E    C9                    	RET
                                ;
                                ;	BBG - Bury balcones gold.
                                ;
  040F    CD 02F2               BBG:	CALL	RETURN
  0412    11 FF5C               	LD	DE,LINBUF	;balcones diamonds are forever
  0415    01 0050               	LD	BC,80
  0418    ED B0                 LDIRX:	LDIR
  041A    C9                    	RET
                                	SUBTTL	LOGICAL TO PHYSICAL DRIVER EXECUTIONER
                                	PAGE
BALCONES OPERATING SYSTEM FOR THE XEROX 820-II   	MACRO-80 3.44	09-Dec-81	PAGE	1-38
LOGICAL TO PHYSICAL DRIVER EXECUTIONER

                                
                                	ABOVE			;code goes in RAM
  0518!                   +     	D&SEG
                                ;
                                ;	XQDVR - Execute Physical Driver.
                                ;
                                ;	Entry:	HL = Pointer to Physical Drive Request Block
                                ;
                                ;	Exit:	See Physical Driver
                                ;
  F344    23                    XQDVR:	INC	HL		;point at physical unit
  F345    E5                    	PUSH	HL
  F346    23                    	INC	HL
  F347    5E                    	LD	E,(HL)		;set logical drive
  F348    21 F360               	LD	HL,SELTAB	;Set driver mapping table address
  F34B    16 00                 	LD	D,0
  F34D    19                    	ADD	HL,DE		;index into driver select table
  F34E    19                    	ADD	HL,DE
  F34F    5E                    	LD	E,(HL)		;set physical driver index
  F350    23                    	INC	HL
  F351    7E                    	LD	A,(HL)		;set physical unit
  F352    21 F380               	LD	HL,DVRTAB	;set driver table address
  F355    19                    	ADD	HL,DE
  F356    19                    	ADD	HL,DE
  F357    5E                    	LD	E,(HL)		;set physical driver address
  F358    23                    	INC	HL
  F359    56                    	LD	D,(HL)
  F35A    E1                    	POP	HL		;recover request block address
  F35B    77                    	LD	(HL),A		;store physical unit
  F35C    2B                    	DEC	HL
  F35D    D5                    	PUSH	DE		;execute physical driver
  F35E    C9                    	RET
                                	SUBTTL	PHYSICAL DISK DRIVER AREA
                                	PAGE
BALCONES OPERATING SYSTEM FOR THE XEROX 820-II   	MACRO-80 3.44	09-Dec-81	PAGE	1-39
PHYSICAL DISK DRIVER AREA

                                
                                ;
                                ;	Physical Disk Driver Area.
                                ;
                                ;	1.25k of space is reserved here for the Physical Disk Drivers.
                                ;	These drivers are assembled separately and included prior
                                ;	to ROM production.
                                ;
                                	ABOVE
  035F"                   +     	D&SEG
                                ;
                                ;	Waste space to get drivers on page boundry.
                                ;
  F35F                          WASTED:
  000F                          BNDRY	EQU	0FH
                                	IF	($ AND BNDRY) NE 0
  F35F                          	DEFS	BNDRY+1-($ AND BNDRY),-1
                                	ENDIF
  F360    53 45 4C 54           SELTAB:	DEFM	'SELTAB AND PHYSICAL DRIVERS HERE'
  F364    41 42 20 41           
  F368    4E 44 20 50           
  F36C    48 59 53 49           
  F370    43 41 4C 20           
  F374    44 52 49 56           
  F378    45 52 53 20           
  F37C    48 45 52 45           
  F380                          	DEFS	32-($-SELTAB),0	;Drive Select Mapping Table goes here
  F380                          DVRTAB:	REPT	8		;Physical Driver Address Table goes here
                                	DEFW	SELERR
                                	ENDM
  F380    FA08            +     	DEFW	SELERR
  F382    FA08            +     	DEFW	SELERR
  F384    FA08            +     	DEFW	SELERR
  F386    FA08            +     	DEFW	SELERR
  F388    FA08            +     	DEFW	SELERR
  F38A    FA08            +     	DEFW	SELERR
  F38C    FA08            +     	DEFW	SELERR
  F38E    FA08            +     	DEFW	SELERR
  F390                          DSKDVR:
  0298                          WD17DL	EQU	298H
  0300                          SASIDL	EQU	300H
  F470                          FIVDPB	EQU	$+8*16+26+6+4*16
  F708                          RIGDPB	EQU	FIVDPB+WD17DL
  F770                          IOBLOC	EQU	FIVDPB+SASIDL
                                	IF	OPTIONS AND O.DDVR
  F390                          	DEFS	FIVDPB-DSKDVR+WD17DL+SASIDL,-1	;Disk Drivers here
                                	ENDIF
  FA08                          DVRLMT:				;disk driver limit
  FA08                          RQTOP	EQU	$		;set required top of resident monitor
  FA08    21 0000               SELERR:	LD	HL,0
  FA0B    F6 FF                 	OR	-1
  FA0D    C9                    	RET
                                	SUBTTL	820 STYLE DISK DRIVER EMULATOR
                                	PAGE
BALCONES OPERATING SYSTEM FOR THE XEROX 820-II   	MACRO-80 3.44	09-Dec-81	PAGE	1-40
820 STYLE DISK DRIVER EMULATOR

                                
                                ;
                                ;	820 Style Disk Driver Emulator.
                                ;
                                	ABOVE			;generate code in RAM
  0A0E"                   +     	D&SEG
  FA0E    FF                    PHYCMD:	DEFB	-1		;physical Driver Command
  FA0F    FF                    PHYUNT:	DEFB	-1		;physical unit
  FA10    00                    PHYDRV:	DEFB	00		;logical unit
  FA11    0000                  PHYTRK:	DEFW	00		;track
  FA13    0001                  PHYSEC:	DEFW	01		;sector
  FA15    ED80                  PHYDMA:	DEFW	BOOTBF		;dma address
                                ;
                                ;	SELECT - Select Unit for I/O.
                                ;
                                ;	Entry:	C  = Unit
                                ;	Exit:	A  = 0  if no errors
                                ;		A  = -1 if errors
                                ;
                                ;	Select is documented as not switching units if the new unit
                                ;	is not ready.  This is not a very good idea.  This driver
                                ;	does remember the new unit, so that a seek/read/write will fail.
                                ;
  FA17    79                    SELECT:	LD	A,C		;set drive selected
  FA18    FE 08                 	CP	8
  FA1A    30 1D                 	JR	NC,SEL1
  FA1C    32 FA10               	LD	(PHYDRV),A	;save logical CP/M drive
  FA1F    21 FA5A               	LD	HL,SELTBL	;set select table address
  FA22    06 00                 	LD	B,0
  FA24    09                    	ADD	HL,BC		;index into select table
  FA25    7E                    	LD	A,(HL)
  FA26    B7                    	OR	A
  FA27    EB                    	EX	DE,HL
  FA28    67                    	LD	H,A		;in case previous select worked, say no DPH
  FA29    6F                    	LD	L,A		;to internal routines
  FA2A    C8                    	RET	Z		;if drive has already been selected
  FA2B    D5                    	PUSH	DE		;save table address
  FA2C    06 FF                 	LD	B,-1		;set Select operation
  FA2E    CD FA51               	CALL	XQPHYS		;execute physical driver
  FA31    7D                    	LD	A,L		;get returned DPH address
  FA32    B4                    	OR	H
  FA33    D1                    	POP	DE		;retrieve select table address
  FA34    28 03                 	JR	Z,SEL1		;if select unsuccessful
  FA36    AF                    	XOR	A		;return no errors
  FA37    12                    	LD	(DE),A		;prevent more density re-selects
  FA38    C9                    	RET
  FA39    F6 FF                 SEL1:	OR	-1		;return error
  FA3B    C9                    	RET
                                ;
                                ;	HOME - Position to track zero.
                                ;
  FA3C    0E 00                 HOME:	LD	C,0		;force track zero
                                ;
                                ;	SEEK - Seek Track.
                                ;
                                ;	Entry:	C  = Track to read/write from next
                                ;
  FA3E    79                    SEEK:	LD	A,C
  FA3F    32 FA11               	LD	(PHYTRK),A
BALCONES OPERATING SYSTEM FOR THE XEROX 820-II   	MACRO-80 3.44	09-Dec-81	PAGE	1-41
820 STYLE DISK DRIVER EMULATOR

  FA42    AF                    	XOR	A		;return no errors
  FA43    C9                    	RET
                                ;
                                ;	WRITE - Write Physical Sector.
                                ;
  FA44    06 00                 WRITE:	LD	B,0		;set write operation
  FA46    18 02                 	JR	RDWR
                                ;
                                ;	READ - Read Physical Sector.
                                ;
  FA48    06 01                 READ:	LD	B,1		;set read operation
                                ;
                                ;	RDWR - Read/Write Processor.
                                ;
                                ;	Entry:	C  = Sector
                                ;		HL = Transfer Address
                                ;	Exit:	A  = 0 if no errors
                                ;		A  = -1 if errors
                                ;
  FA4A    79                    RDWR:	LD	A,C
  FA4B    32 FA13               	LD	(PHYSEC),A	;set physical sector
  FA4E    22 FA15               	LD	(PHYDMA),HL	;set transfer address
                                ;
                                ;	XQPHYS - Internal Execute Physical Driver.
                                ;
                                ;	Entry:	B  = -1 for Select
                                ;		B  =  0 for Write
                                ;		B  =  1 for Read
                                ;
  FA51    21 FA0E               XQPHYS:	LD	HL,PHYCMD	;point to physical command block
  FA54    70                    	LD	(HL),B		;store operation
  FA55    CD F344               	CALL	XQDVR		;execute driver
  FA58    B7                    	OR	A		;set flags
  FA59    C9                    	RET
                                ;
                                ;	Emulator Disk I/O RAM.
                                ;
  FA5A    FF FF FF FF           SELTBL:	DEFB	-1,-1,-1,-1	;drive already selected table
  FA5E    FF FF FF FF           	DEFB	-1,-1,-1,-1
                                	SUBTTL	COMMAND PROCESSOR
                                	PAGE
BALCONES OPERATING SYSTEM FOR THE XEROX 820-II   	MACRO-80 3.44	09-Dec-81	PAGE	1-42
COMMAND PROCESSOR

                                
                                	ABOVE			;put code upstairs
  0A62"                   +     	D&SEG
                                ;
                                ;	Prompt user for command.
                                ;
  FA62    FB                    PROMPT:	EI
  FA63    31 0000               	LD	SP,STACK	;reset system stack
  FA66    CD FC3D               	CALL	PNEXT
  FA69    0D 0A                 	DEFB	CR,LF
  FA6B    2A 20                 	DEFM	'* '
  FA6D    04                    	DEFB	EOT
  FA6E    21 FF5C               	LD	HL,LINBUF
  FA71    0E 50                 	LD	C,80		;buffer of 80 chars (ver. 2.0)
  FA73    CD FB37               	CALL	GETLIN		;input a bufered console line
  FA76    38 51                 	JR	C,WHAT		;print 'what ?' if input error
  FA78    3A FF5C               AUTOBT:	LD	A,(LINBUF)	;get first character in line
  FA7B    FE 0D                 	CP	CR
  FA7D    28 E3                 	JR	Z,PROMPT	;jump if a null line
  FA7F    D6 40                 	SUB	'@'
  FA81    FE 1B                 	CP	'Z'-'@'+1
  FA83    30 44                 	JR	NC,WHAT		;if not letter
  FA85    87                    	ADD	A,A
  FA86    4F                    	LD	C,A
  FA87    06 00                 	LD	B,0
  FA89    21 FAD9               	LD	HL,CMDTAB+1	;index command table with character
  FA8C    09                    	ADD	HL,BC
  FA8D    7E                    	LD	A,(HL)
  FA8E    2B                    	DEC	HL
  FA8F    6E                    	LD	L,(HL)		;get address of command processor
  FA90    67                    	LD	H,A
  FA91    E6 80                 	AND	80H
  FA93    20 17                 	JR	NZ,PRMT1	;if resident command
  FA95    11 FC55               	LD	DE,CLOC		;move transient command to RAM area
  FA98    D5                    	PUSH	DE
  FA99    01 0299               	LD	BC,TPAMAX	;set length of largest transient
  FA9C    F3                    	DI
  FA9D    DB 1C                 	IN	A,(SYSPIO)
  FA9F    B7                    	OR	A
  FAA0    F5                    	PUSH	AF
  FAA1    F4 F29C               	CALL	P,CRTON		;enable ROM if disabled
  FAA4    ED B0                 	LDIR
  FAA6    F1                    	POP	AF
  FAA7    F4 F293               	CALL	P,CRTOFF	;disable ROM if enabled
  FAAA    FB                    	EI
  FAAB    E1                    	POP	HL		;set execution address
  FAAC    E5                    PRMT1:	PUSH	HL
  FAAD    CD FC36               	CALL	CRLF
  FAB0    FD 21 FF5D            	LD	IY,LINBUF+1
  FAB4    CD FB5F               	CALL	PARAMS		;input numeric parameters from
  FAB7    DD E1                 	POP	IX		;line buffer and test if error
  FAB9    2A FFB5               	LD	HL,(PARAM1)
  FABC    ED 5B FFB7            	LD	DE,(PARAM2)
  FAC0    ED 4B FFB9            	LD	BC,(PARAM3)
  FAC4    CD FAD6               	CALL	JPIX		;call subroutine @ IX
  FAC7    30 99                 	JR	NC,PROMPT	;go back to prompt if no errors
  FAC9    CD FC3D               WHAT:	CALL	PNEXT
  FACC    20 57 68 61           	DEFM	' What?'
  FAD0    74 3F                 
BALCONES OPERATING SYSTEM FOR THE XEROX 820-II   	MACRO-80 3.44	09-Dec-81	PAGE	1-43
COMMAND PROCESSOR

  FAD2    07                    	DEFB	'G'-64		;say 'what ?' and squeal
  FAD3    04                    	DEFB	EOT
  FAD4    18 8C                 	JR	PROMPT
  FAD6    DD E9                 JPIX:	JP	(IX)		;call subroutine @ ix
  FAD8    177B                  CMDTAB:	DEFW	HELP		;@ - Help user
  FADA    11B8                  	DEFW    BOOT            ;a - boot cp/m
  FADC    1353                  	DEFW	BAUD		;b - bit rate
  FADE    1436                  	DEFW	BLOCK		;c - memory block move
  FAE0    12F2                  	DEFW	MEMDMP		;d - dump memory in hex/ascii
  FAE2    1315                  	DEFW	VIEW		;e - enter memory
  FAE4    1428                  	DEFW	FILL		;f - fill memory
  FAE6    12DB                  	DEFW	GOTO		;g - goto program
  FAE8    14E2                  	DEFW	TERM		;h - host terminal
  FAEA    13CA                  	DEFW	INCMD		;i - read from input port
  FAEC    FAC9                  	DEFW	WHAT		;j - not used
  FAEE    FAC9                  	DEFW	WHAT		;k - not used
  FAF0    11B8                  	DEFW	BOOT		;l - load system
  FAF2    1315                  	DEFW	VIEW		;m - memory examine/change
  FAF4    FAC9                  	DEFW	WHAT		;n - not used
  FAF6    13F1                  	DEFW	OUTCMD		;o - write to output port
  FAF8    1459                  	DEFW	PROTO		;p - printer protocol
  FAFA    FAC9                  	DEFW	WHAT		;q - not used
  FAFC    1367                  	DEFW	DSKCMD		;r - display disk sector data
  FAFE    FAC9                  	DEFW	WHAT		;s - not used
  FB00    1477                  	DEFW	TYPE		;t - typewriter mode
  FB02    FAC9                  	DEFW	WHAT		;u - not used
  FB04    1443                  	DEFW	VERCMD		;v - memory block compare
  FB06    1367                  	DEFW	DSKCMD		;w - disc sector write command
  FB08    13FB                  	DEFW	TEST		;x - RAM diagnostic
  FB0A    FAC9                  	DEFW	WHAT		;y - not used
  FB0C    FAC9                  	DEFW	WHAT		;z - not used
  0036                          CMDSIZ	EQU	$-CMDTAB
  FB0E    BE                    CHECK:	CP	(HL)
  FB0F    C8                    	RET	Z		;return if (HL)=A
  FB10    F5                    	PUSH	AF
  FB11    CD FB22               	CALL	MDATA		;print what was actually read
  FB14    CD FC3D               	CALL	PNEXT
  FB17    53 68 6F 75           	DEFM	'Should='
  FB1B    6C 64 3D              
  FB1E    04                    	DEFB	EOT
  FB1F    F1                    	POP	AF
  FB20    18 07                 	JR	PUT2J
  FB22    CD FC36               MDATA:	CALL	CRLF
  FB25    CD FC16               	CALL	PUT4HS
  FB28    7E                    	LD	A,(HL)
  FB29    C3 FC1B               PUT2J:	JP	PUT2HS
                                	SUBTTL	CONSOLE SUPPORT ROUTINES
                                	PAGE
BALCONES OPERATING SYSTEM FOR THE XEROX 820-II   	MACRO-80 3.44	09-Dec-81	PAGE	1-44
CONSOLE SUPPORT ROUTINES

                                
                                ;
                                ;	GETLIN - Read line into buffer.
                                ;
  FB2C    3E 40                 GETHLP:	LD	A,'@'
  FB2E    32 FF5C               	LD	(LINBUF),A
  FB31    3E 0D                 	LD	A,CR
  FB33    32 FF5D               	LD	(LINBUF+1),A
  FB36    C9                    	RET
  FB37    41                    GETLIN:	LD	B,C		;save max line length parameter in B
  FB38    CD FC27               GLIN1:	CALL	ECHO		;get a character from the console
  FB3B    FE 1E                 	CP	HELPKEY
  FB3D    28 ED                 	JR	Z,GETHLP	;if user needs help
  FB3F    77                    	LD	(HL),A
  FB40    FE 0D                 	CP	CR		;check for carriage return
  FB42    C8                    	RET	Z		;if end of line
  FB43    FE 08                 	CP	'H'-64		;check for ctl-H backspace
  FB45    28 09                 	JR	Z,GLIN4
  FB47    FE 20                 	CP	' '
  FB49    D8                    	RET	C		;other control characters are illegal
  FB4A    23                    	INC	HL		;store character in buffer
  FB4B    0D                    	DEC	C
  FB4C    20 EA                 	JR	NZ,GLIN1	;get another if there's more room
  FB4E    37                    	SCF
  FB4F    C9                    	RET			;return with carry=1 if too
                                				;many characters are entered
  FB50    2B                    GLIN4:	DEC	HL		;delete last character from buffer
  FB51    CD FC3D               	CALL	PNEXT
  FB54    20 08                 	DEFB	' ','H'-64	;delete character from screen
  FB56    04                    	DEFB	EOT
  FB57    0C                    	INC	C
  FB58    78                    	LD	A,B		;set max line length
  FB59    91                    	SUB	C
  FB5A    30 DC                 	JR	NC,GLIN1	;if backspace not past the start of the line
  FB5C    C9                    	RET
  FB5D    FD 23                 PARA0:	INC	IY		;advance character scan
  FB5F    01 00FF               PARAMS:	LD	BC,LOW -1	;set parameter index
  FB62    FD 7E 00              	LD	A,(IY+0)	;fetch character
  FB65    D6 0D                 	SUB	CR
  FB67    C8                    	RET	Z		;if no parameters
  FB68    D6 13                 	SUB	' '-CR
  FB6A    28 F1                 	JR	Z,PARA0		;if leading blanks
  FB6C    0C                    PARA1:	INC	C		;advance parameter index
  FB6D    CB 51                 	BIT	2,C
  FB6F    37                    	SCF
  FB70    C0                    	RET	NZ		;error if > 4 numbers entered
  FB71    C5                    PARA2:	PUSH	BC		;save parameter count
  FB72    CD FBDA               	CALL	GETHEX		;read a number from line buffer
  FB75    C1                    	POP	BC
  FB76    DD 21 FFB5            PARA4:	LD	IX,PARAM1	;point to parameter storage area
  FB7A    DD 09                 	ADD	IX,BC		;add parameter count in bc
  FB7C    DD 09                 	ADD	IX,BC
  FB7E    DD 75 00              	LD	(IX+0),L
  FB81    DD 74 01              	LD	(IX+1),H	;store data returned from 'GETHEX'
  FB84    FE 20                 	CP	' '
  FB86    28 E4                 	JR	Z,PARA1		;get another item if space
  FB88    FE 2C                 	CP	','
  FB8A    28 E0                 	JR	Z,PARA1		;get another item if comma
  FB8C    79                    	LD	A,C		;set parameter count
BALCONES OPERATING SYSTEM FOR THE XEROX 820-II   	MACRO-80 3.44	09-Dec-81	PAGE	1-45
CONSOLE SUPPORT ROUTINES

  FB8D    3C                    	INC	A
  FB8E    C9                    	RET
                                ;
                                ;	DUMP - Dump memory.
                                ;
  FB8F    E5                    DUMP:	PUSH	HL		;save starting address
  FB90    CD FC16               	CALL	PUT4HS		;print starting address in hex
  FB93    CD FC1E               	CALL	SPACE
  FB96    06 10                 	LD	B,16
  FB98    3E 0F                 DUMP2:	LD	A,16-1		;skip 3 columns on 16 byte boundry
  FB9A    CD FC23               	CALL	DMPFMT
  FB9D    3E 07                 	LD	A,8-1		;skip 2 columns on 8 byte boundry
  FB9F    CD FC23               	CALL	DMPFMT
  FBA2    3E 03                 	LD	A,4-1		;skip 1 column  on 4 byte boundry
  FBA4    CD FC23               	CALL	DMPFMT
  FBA7    7E                    	LD	A,(HL)		;get a data byte @ HL
  FBA8    23                    	INC	HL
  FBA9    CD FC1B               	CALL	PUT2HS		;print the data in hex
  FBAC    10 EA                 	DJNZ	DUMP2		;repeat 16 times
  FBAE    CD FC1E               	CALL	SPACE
  FBB1    E1                    	POP	HL		;restore starting address
  FBB2    06 10                 	LD	B,16
  FBB4    3E 1F                 DUMP3:	LD	A,1FH		;force next character
  FBB6    CD F00C               	CALL	CONOUT
  FBB9    7E                    	LD	A,(HL)		;get back data byte @ HL
  FBBA    23                    	INC	HL
  FBBB    CD F00C               	CALL	CONOUT		;print ASCII character in A
  FBBE    10 F4                 	DJNZ	DUMP3
  FBC0    CD F006               	CALL	CONST		;check console status
  FBC3    28 0C                 	JR	Z,DUMP4		;if character not ready
  FBC5    CD F009               	CALL	CONIN		;read character
  FBC8    FE 0D                 	CP	CR
  FBCA    C8                    	RET	Z		;if user abort
  FBCB    CD F009               	CALL	CONIN		;pause while user examines display
  FBCE    FE 0D                 	CP	CR
  FBD0    C8                    	RET	Z		;if user found it
  FBD1    CD FC36               DUMP4:	CALL	CRLF		;send end of line
  FBD4    1B                    	DEC	DE
  FBD5    7A                    	LD	A,D
  FBD6    B3                    	OR	E
  FBD7    20 B6                 	JR	NZ,DUMP		;if dump not complete
  FBD9    C9                    	RET
                                ;
                                ;	GETHEX - Converts ASCII to binary.
                                ;
                                ;	Carry set on illegal conversion result
                                ;	Terminating character returns in A.
                                ;	HL returns with 16 bit binary integer
                                ;
  FBDA    21 0000               GETHEX:	LD	HL,0		;preset result
  FBDD    54                    	LD	D,H
  FBDE    5D                    	LD	E,L
  FBDF    29                    GNUM1:	ADD	HL,HL		;multiply result by 16
  FBE0    29                    	ADD	HL,HL
  FBE1    29                    	ADD	HL,HL
  FBE2    29                    	ADD	HL,HL
  FBE3    19                    	ADD	HL,DE		;append next digit
  FBE4    FD 7E 00              GNUM3:	LD	A,(IY+0)	;get next character from line buffer
  FBE7    4F                    	LD	C,A
  FBE8    FD 23                 	INC	IY		;advance buffer address
BALCONES OPERATING SYSTEM FOR THE XEROX 820-II   	MACRO-80 3.44	09-Dec-81	PAGE	1-46
CONSOLE SUPPORT ROUTINES

  FBEA    CD FBF3               	CALL	HEXBIN		;convert one ASCII hex to binary
  FBED    5F                    	LD	E,A
  FBEE    30 EF                 	JR	NC,GNUM1
  FBF0    79                    	LD	A,C		;return first non hex digit
  FBF1    B7                    	OR	A
  FBF2    C9                    	RET
                                ;
                                ;	HEXBIN - Convert hex to binary.
                                ;
  FBF3    D6 30                 HEXBIN:	SUB	'0'
  FBF5    D8                    	RET	C
  FBF6    FE 0A                 	CP	10
  FBF8    3F                    	CCF
  FBF9    D0                    	RET	NC
  FBFA    D6 07                 	SUB	7
  FBFC    FE 0A                 	CP	10
  FBFE    D8                    	RET	C
  FBFF    FE 10                 	CP	16
  FC01    3F                    	CCF
  FC02    C9                    	RET
  FC03    F5                    PUT2HX:	PUSH	AF
  FC04    1F                    	RRA
  FC05    1F                    	RRA
  FC06    1F                    	RRA
  FC07    1F                    	RRA
  FC08    CD FC0C               	CALL	PUTNIB
  FC0B    F1                    	POP	AF
  FC0C    E6 0F                 PUTNIB:	AND	00001111B
  FC0E    C6 90                 	ADD	A,90H
  FC10    27                    	DAA
  FC11    CE 40                 	ADC	A,40H
  FC13    27                    	DAA
  FC14    18 0A                 	JR	OUTPUT
  FC16    7C                    PUT4HS:	LD	A,H
  FC17    CD FC03               	CALL	PUT2HX
  FC1A    7D                    	LD	A,L
  FC1B    CD FC03               PUT2HS:	CALL	PUT2HX
                                ;
                                ;	SPACE - Output space.
                                ;
  FC1E    3E 20                 SPACE:	LD	A,' '		;fall through to output space
  FC20    C3 F00C               OUTPUT:	JP	CONOUT		;display character
                                ;
                                ;	DMPFMT - Dump Command Output Formatter.
                                ;
  FC23    A5                    DMPFMT:	AND	L		;check address boundry
  FC24    C0                    	RET	NZ		;if not on boundry
  FC25    18 F7                 	JR	SPACE		;skip one column
                                ;
                                ;	ECHO - Read and echo console character.
                                ;
                                ;	Echo inputs one character from the console
                                ;	device, prints it on the console output and
                                ;	then returns it in the A register in upper case.
                                ;
  FC27    CD F009               ECHO:	CALL	CONIN		;input a character and echo it
  FC2A    FE 1E                 	CP	HELPKEY
  FC2C    C8                    	RET	Z		;do not echo help key
  FC2D    CD F00C               	CALL	CONOUT
  FC30    FE 41                 	CP	'A'
BALCONES OPERATING SYSTEM FOR THE XEROX 820-II   	MACRO-80 3.44	09-Dec-81	PAGE	1-47
CONSOLE SUPPORT ROUTINES

  FC32    D8                    	RET	C		;if not lower case
  FC33    D6 00                 	SUB	'A'-'A'		;convert lower case to upper case
  FC35    C9                    	RET
                                ;
                                ;	CRLF - Carriage Return/Line Feed.
                                ;
  FC36    CD FC3D               CRLF:	CALL	PNEXT		;print next message
  FC39    0D 0A 04              	DEFB	CR,LF,EOT
  FC3C    C9                    	RET
                                ;
                                ;	PNEXT - Print message after call.
                                ;
  FC3D    E3                    PNEXT:	EX	(SP),HL		;set message address
  FC3E    7E                    	LD	A,(HL)
  FC3F    23                    	INC	HL
  FC40    E3                    	EX	(SP),HL		;set return address
  FC41    FE 04                 	CP	EOT
  FC43    C8                    	RET	Z
  FC44    CD F00C               	CALL	CONOUT
  FC47    18 F4                 	JR	PNEXT
                                	IF	OPTIONS AND (O.MOVE OR O.VERF)
                                ;
                                ;	Set block address for move and verify.
                                ;
  FC49    EB                    BLOCAD:	EX	DE,HL
  FC4A    B7                    	OR	A		;clear carry
  FC4B    ED 52                 	SBC	HL,DE		;get diffrence between
  FC4D    EB                    	EX	DE,HL		;HL & DE for bytecount
  FC4E    D5                    	PUSH	DE		;exchange DE, BC
  FC4F    50                    	LD	D,B
  FC50    59                    	LD	E,C
  FC51    C1                    	POP	BC
  FC52    03                    	INC	BC		;get count+1 into BC
  FC53    C9                    	RET
                                	ENDIF
  FC54    C9                    	RET
                                	SUBTTL	TRANSIENT COMMAND AREA
                                	PAGE
BALCONES OPERATING SYSTEM FOR THE XEROX 820-II   	MACRO-80 3.44	09-Dec-81	PAGE	1-48
TRANSIENT COMMAND AREA

                                
  FC55                          CLOC	DEFL	$		;establish overlay execution address
                                	OVERLAY	START
  0C55"                   +     	C&SEG
                                ;
                                ;	SIGNON - Announce System Ready.
                                ;
  FC55    08                    SIGNON:	EX	AF,AF'
  FC56    CD F293               	CALL	CRTOFF		;disable ROM/RAM
  FC59    08                    	EX	AF,AF'
  FC5A    28 4A                 	JR	Z,SIGN4		;if Rx1984 loaded disk driver
  FC5C    08                    	EX	AF,AF'		;get system PIO data
  FC5D    21 F091               	LD	HL,CONFG	;point to configuration byte
  FC60    CB 47                 	BIT	0,A
  FC62    28 24                 	JR	Z,SIGN3		;if SASI interface present
  FC64    F3                    	DI
  FC65    3E CF                 	LD	A,11001111B	;set PIO B in Bit Mode
  FC67    D3 1D                 	OUT	(SYSCTL),A
  FC69    3E 38                 	LD	A,00111000B	;turn around d0,1,2
  FC6B    D3 1D                 	OUT	(SYSCTL),A
  FC6D    D3 1C                 	OUT	(SYSPIO),A	;drop all drive selects
  FC6F    3E D0                 	LD	A,0D0H		;reset WD-1797-02
  FC71    D3 10                 	OUT	(WD1797),A
  FC73    10 FE                 SIGN1:	DJNZ	SIGN1		;wait 1797 not busy
  FC75    DB 1C                 	IN	A,(SYSPIO)
  FC77    CB 67                 	BIT	C.FIVE,A
  FC79    3E 02                 	LD	A,2		;preset 10 msec step rate
  FC7B    20 04                 	JR	NZ,SIGN2	;if not 5"
  FC7D    CB E6                 	SET	C.FIVE,(HL)
  FC7F    3E 03                 	LD	A,3		;set long step
  FC81    D3 10                 SIGN2:	OUT	(WD1797),A	;restore / unload heads
  FC83    32 FF54               	LD	(STEPRT),A
  FC86    18 1E                 	JR	SIGN4
  FC88    CB F6                 SIGN3:	SET	C.SASI,(HL)	;set SASI card installed
  FC8A    21 F708               	LD	HL,RIGDPB	;set address of rigid DPB
  FC8D    11 F470               	LD	DE,FIVDPB	;set address of 5.25" floppy DPB
  FC90    01 0300               	LD	BC,SASIDL	;set SASI driver length
  FC93    ED B0                 	LDIR			;Move driver down
  FC95    E6 02                 	AND	2
  FC97    20 0D                 	JR	NZ,SIGN4	;if not A/E swap
  FC99    21 F361               	LD	HL,SELTAB+1
  FC9C    06 08                 	LD	B,8
  FC9E    7E                    SIGN3A:	LD	A,(HL)
  FC9F    EE 04                 	XOR	4
  FCA1    77                    	LD	(HL),A
  FCA2    23                    	INC	HL
  FCA3    23                    	INC	HL
  FCA4    10 F8                 	DJNZ	SIGN3A
  FCA6    CD FC3D               SIGN4:	CALL	PNEXT
  FCA9    1A                    	DEFB	CLRS		;clear screen
                                	IF	OPTIONS AND O.ESCT
  FCAA    1B 38                 	DEFB	ESC,'8'		;set low light as default mode
                                	ELSE
                                	DEFB	'R'-'@'
                                	ENDIF
  FCAC    38 32 30 2D           	DEFM	'820-II v '
  FCB0    49 49 20 76           
  FCB4    20                    
  FCB5    34 2E 30 31           	DEFB	REV/100+'0','.',(REV MOD 100)/10+'0',(REV MOD 10)+'0'
BALCONES OPERATING SYSTEM FOR THE XEROX 820-II   	MACRO-80 3.44	09-Dec-81	PAGE	1-49
TRANSIENT COMMAND AREA

  FCB9    20 1F 1C 20           	DEFM	' ',31,28,' 1982 Xerox Corp'
  FCBD    31 39 38 32           
  FCC1    20 58 65 72           
  FCC5    6F 78 20 43           
  FCC9    6F 72 70              
  FCCC    0D 0A                 	DEFB	CR,LF
                                	IF	OPTIONS AND O.AUTO
                                	DEFB	7,EOT
                                	LD	B,-1		;select drive A:
                                	CALL	XQPHYS		;execute physical driver
                                	LD	A,L
                                	OR	H
                                	JR	Z,SIGN5
                                	LD	B,1		;read drive A:
                                	CALL	XQPHYS
                                	LD	HL,'L'+CR*256
                                	LD	(LINBUF),HL
                                	JP	Z,AUTOBT	;if auto booting	
                                SIGN5:	CALL	PNEXT
                                	ENDIF
  FCCE    0A                    	DEFB	LF
  FCCF    4C 20 2D 20           	DEFM	'L - Load System'
  FCD3    4C 6F 61 64           
  FCD7    20 53 79 73           
  FCDB    74 65 6D              
  FCDE    0D 0A                 	DEFB	CR,LF
                                	IF	OPTIONS AND O.TERM
  FCE0    48 20 2D 20           	DEFM	'H - Host Terminal'
  FCE4    48 6F 73 74           
  FCE8    20 54 65 72           
  FCEC    6D 69 6E 61           
  FCF0    6C                    
  FCF1    0D 0A                 	DEFB	CR,LF
                                	ENDIF
                                	IF	OPTIONS AND O.TYPE
  FCF3    54 20 2D 20           	DEFM	'T - Typewriter'
  FCF7    54 79 70 65           
  FCFB    77 72 69 74           
  FCFF    65 72                 
  FD01    0D 0A                 	DEFB	CR,LF
                                	ENDIF
  FD03    07 04                 	DEFB	7,EOT
  FD05    CD F006               EATME:	CALL	CONST
  FD08    CA F003               	JP	Z,WARM		;go enter monitor
  FD0B    CD F009               	CALL	CONIN
  FD0E    18 F5                 	JR	EATME
                                	SUBTTL	I/O BYTE DRIVERS
                                	PAGE
BALCONES OPERATING SYSTEM FOR THE XEROX 820-II   	MACRO-80 3.44	09-Dec-81	PAGE	1-50
I/O BYTE DRIVERS

                                
                                	OVERLAY	IOBDVR
  00BB'                   +     	C&SEG
                                	.DEPHASE
                                	.PHASE	IOBLOC
                                ;
                                ;	COMINS - Communications input status.
                                ;
  F770    DB 06                 COMINS:	IN	A,(SIOCPA)
  F772    0F                    	RRCA
  F773    9F                    	SBC	A,A
  F774    C9                    	RET
                                ;
                                ;	COMINP - Communications input data.
                                ;
  F775    DB 06                 COMINP:	IN	A,(SIOCPA)
  F777    0F                    	RRCA
  F778    30 FB                 	JR	NC,COMINP
  F77A    DB 04                 	IN	A,(SIODPA)
  F77C    C3 F0E2               	JP	KBMASK
                                ;
                                ;	COMOUT - Communications output.
                                ;
  F77F    CD F788               COMOUT:	CALL	COMOTS
  F782    28 FB                 	JR	Z,COMOUT
  F784    79                    	LD	A,C
  F785    D3 04                 	OUT	(SIODPA),A
  F787    C9                    	RET
                                ;
                                ;	COMOTS - Communications output status.
                                ;
  F788    DB 06                 COMOTS:	IN	A,(SIOCPA)
  F78A    E6 04                 	AND	4
  F78C    C8                    	RET	Z
  F78D    F6 FF                 	OR	-1
  F78F    C9                    	RET
                                ;
                                ;	CONIOB - get console I/O byte.
                                ;
  F790    3A 0003               CONIOB:	LD	A,(IOBYTE)
  F793    E6 03                 	AND	00000011B
  F795    C9                    	RET
                                ;
                                ;	IOCONO - Console output through IOBYTE.
                                ;
  F796    CD F790               IOCONO:	CALL	CONIOB
  F799    28 E4                 	JR	Z,COMOUT
  F79B    3D                    	DEC	A
  F79C    CA F2FE               	JP	Z,FASTCRT
  F79F    79                    	LD	A,C
  F7A0    C3 F0F8               	JP	SIOOUT
                                ;
                                ;	IOCONS - Console status through IOBYTE.
                                ;
  F7A3    CD F790               IOCONS:	CALL	CONIOB
  F7A6    28 C8                 	JR	Z,COMINS
  F7A8    3D                    	DEC	A
  F7A9    CA F0CD               	JP	Z,KBDST
  F7AC    C3 F0E5               	JP	SIOST
BALCONES OPERATING SYSTEM FOR THE XEROX 820-II   	MACRO-80 3.44	09-Dec-81	PAGE	1-51
I/O BYTE DRIVERS

                                ;
                                ;	IOCONI - Console input through IOBYTE.
                                ;
  F7AF    CD F790               IOCONI:	CALL	CONIOB
  F7B2    28 C1                 	JR	Z,COMINP
  F7B4    3D                    	DEC	A
  F7B5    CA F0D8               	JP	Z,KBDIN
  F7B8    C3 F0F0               	JP	SIOIN
                                ;
                                ;	LSTOUT - List output through IOBYTE.
                                ;
  F7BB    3A 0003               IOLIST:	LD	A,(IOBYTE)
  F7BE    E6 C0                 	AND	11000000B
  F7C0    28 BD                 	JR	Z,COMOUT
  F7C2    EA F7DC               	JP	PE,PIOOUT
  F7C5    79                    	LD	A,C
  F7C6    FA F0F8               	JP	M,SIOOUT
  F7C9    C3 F2FE               	JP	FASTCRT
                                ;
                                ;	List output through IOBYTE.
                                ;
  F7CC    3A 0003               IOLSTS:	LD	A,(IOBYTE)
  F7CF    E6 C0                 	AND	11000000B
  F7D1    28 B5                 	JR	Z,COMOTS
  F7D3    EA F7F4               	JP	PE,PIOSTO
  F7D6    FA F105               	JP	M,SIORDY
  F7D9    F6 FF                 	OR	-1
  F7DB    C9                    	RET
                                ;
                                ;	Parallel Output Driver.
                                ;
  F7DC    CD F7F4               PIOOUT:	CALL	PIOSTO
  F7DF    28 FB                 	JR	Z,PIOOUT	;if printer not ready
  F7E1    79                    	LD	A,C
  F7E2    D3 08                 	OUT	(GPIODA),A	;load character data
  F7E4    DB 0A                 	IN	A,(GPIODB)
  F7E6    CB 97                 	RES	P.STRB,A	;assert strobe
  F7E8    D3 0A                 	OUT	(GPIODB),A
  F7EA    CB D7                 	SET	P.STRB,A	;release stobe
  F7EC    D3 0A                 	OUT	(GPIODB),A
  F7EE    3E 0A                 	LD	A,10		;delay for ACK
  F7F0    3D                    PIO1:	DEC	A
  F7F1    20 FD                 	JR	NZ,PIO1
  F7F3    C9                    	RET	
                                ;
                                ;	Parallel Output Status.
                                ;
  F7F4    DB 0A                 PIOSTO:	IN	A,(GPIODB)	;read status
  F7F6    2F                    	CPL
  F7F7    E6 10                 	AND	1 SHL P.RDYO
  F7F9    C8                    	RET	Z		;if ready
  F7FA    F6 FF                 	OR	-1
  F7FC    C9                    	RET
  008D                          IOBDVS	EQU	$-IOBLOC
                                	.DEPHASE
                                	.PHASE	CLOC+IOBDVS
                                	SUBTTL	TRANSIENT COMMAND PROCESSORS
                                	PAGE
BALCONES OPERATING SYSTEM FOR THE XEROX 820-II   	MACRO-80 3.44	09-Dec-81	PAGE	1-52
TRANSIENT COMMAND PROCESSORS

                                
                                	IF	OPTIONS AND O.DDVR
                                ;	-- disk boot loader command --
                                ;
                                	OVERLAY	BOOT
  0148'                   +     	C&SEG
  FC55    21 FF5D               	LD	HL,LINBUF+1
  FC58    7E                    BOOT1:	LD	A,(HL)		;scan command line
  FC59    2C                    	INC	L
  FC5A    D6 0D                 	SUB	CR
  FC5C    28 0B                 	JR	Z,BOOT2		;if no parameter, boot from A:
  FC5E    FE 13                 	CP	' '-CR
  FC60    28 F6                 	JR	Z,BOOT1		;skip leading blanks
  FC62    D6 34                 	SUB	'A'-CR
  FC64    D8                    	RET	C		;if invalid drive
  FC65    FE 10                 	CP	16
  FC67    3F                    	CCF
  FC68    D8                    	RET	C		;if bad drive
  FC69    4F                    BOOT2:	LD	C,A		;set boot drive selected
  FC6A    C6 41                 	ADD	A,'A'
  FC6C    32 FCDD               	LD	(BOOTD),A	;set up error message
  FC6F    2E 00                 	LD	L,0		;set A:
  FC71    C5                    	PUSH	BC
  FC72    E5                    	PUSH	HL
  FC73    CD FCEE               	CALL	SWAP		;switch boot drive with A:
  FC76    21 FCD9               	LD	HL,BOOTER	;set boot error return
  FC79    E5                    	PUSH	HL
  FC7A    0E 00                 	LD	C,0		;then boot from A:
  FC7C    CD FA17               	CALL	SELECT
  FC7F    C0                    	RET	NZ		;if drive not configured or density error
  FC80    3E FF                 	LD	A,-1
  FC82    12                    	LD	(DE),A
  FC83    11 000A               	LD	DE,10		;set DPB address offset within DPH
  FC86    19                    	ADD	HL,DE
  FC87    5E                    	LD	E,(HL)		;set DPB address
  FC88    23                    	INC	HL
  FC89    56                    	LD	D,(HL)
  FC8A    CD FA3C               	CALL	HOME
  FC8D    0E 01                 	LD	C,1		;set sector 1
  FC8F    1A                    	LD	A,(DE)		;get low sectors per track
  FC90    32 FCD4               	LD	(BOOTS),A	;inform boot loader
  FC93    B7                    	OR	A
  FC94    20 0D                 	JR	NZ,BOOT3	;if not rigid
  FC96    21 000D               	LD	HL,13		;set reserved track offset within DPB
  FC99    19                    	ADD	HL,DE
  FC9A    4E                    	LD	C,(HL)		;get reserved tracks
  FC9B    23                    	INC	HL
  FC9C    46                    	LD	B,(HL)
  FC9D    0B                    	DEC	BC		;point behind directory
  FC9E    ED 43 FA11            	LD	(PHYTRK),BC	;do implied seek
  FCA2    4F                    	LD	C,A		;set sector zero for rigid
  FCA3    21 ED80               BOOT3:	LD	HL,BOOTBF	;point to boot load buffer
  FCA6    CD FA48               	CALL	READ		;read cold start loader
  FCA9    C0                    	RET	NZ		;if read error
  FCAA    11 00FF               	LD	DE,BOOTLD+128-1	;set boot loader address
  FCAD    21 EDFF               	LD	HL,BOOTBF+128-1
  FCB0    01 0080               	LD	BC,128
  FCB3    ED B8                 	LDDR			;move front half of boot loader to 80h
  FCB5    13                    	INC	DE
BALCONES OPERATING SYSTEM FOR THE XEROX 820-II   	MACRO-80 3.44	09-Dec-81	PAGE	1-53
TRANSIENT COMMAND PROCESSORS

  FCB6    1A                    	LD	A,(DE)		;verify instructions read in
  FCB7    FE E5                 	CP	0E5H
  FCB9    C8                    	RET	Z		;if disk has no system
  FCBA    21 F000               	LD	HL,MONITR
  FCBD    22 F004               	LD	(WARM+1),HL	;set warm start to reload monitor
  FCC0    CD FD05               	CALL	LCP		;load configuration parameters
  FCC3    21 112B               	LD	HL,IOBDVR	;load IOBYTE driver
  FCC6    11 F770               	LD	DE,IOBLOC
  FCC9    01 008D               	LD	BC,IOBDVS
  FCCC    AF                    	XOR	A
  FCCD    CD F2A3               	CALL	CRTLDIR
  FCD0    21 0080               	LD	HL,BOOTLD	;set start address
  FCD3    3E 00                 	LD	A,0
  FCD4                          BOOTS	EQU	$-1		;sectors per track
  FCD5    11 FA0E               	LD	DE,PHYCMD	;tell boot loader from whence he came
  FCD8    E9                    	JP	(HL)		;execute Boot Loader with return to booter
                                ;
                                ;	BOOTER - Boot Error Processor.
                                ;
  FCD9    CD FC3D               BOOTER:	CALL	PNEXT
  FCDC    07                    	DEFB	7
  FCDD    44 3A 20 4C           BOOTD:	DEFM	'D: Load Error.'
  FCE1    6F 61 64 20           
  FCE5    45 72 72 6F           
  FCE9    72 2E                 
  FCEB    04                    	DEFB	EOT
  FCEC    C1                    	POP	BC		;switch drives back
  FCED    E1                    	POP	HL
                                ;
                                ;	SWAP - Swap logical drives.
                                ;
                                ;	Entry:	C = first  drive index, 0-15
                                ;		L = second drive index, 0-15
                                ;
  FCEE    06 00                 SWAP:	LD	B,0		;clear upper indices
  FCF0    60                    	LD	H,B
  FCF1    11 F360               	LD	DE,SELTAB	;set select table address
  FCF4    29                    	ADD	HL,HL
  FCF5    19                    	ADD	HL,DE
  FCF6    EB                    	EX	DE,HL		;set second address to DE, get seltab to HL
  FCF7    09                    	ADD	HL,BC
  FCF8    09                    	ADD	HL,BC		;set first address to HL
  FCF9    06 02                 	LD	B,2
  FCFB    4E                    SWAP1:	LD	C,(HL)		;swap two bytes
  FCFC    1A                    	LD	A,(DE)
  FCFD    77                    	LD	(HL),A
  FCFE    79                    	LD	A,C
  FCFF    12                    	LD	(DE),A
  FD00    23                    	INC	HL
  FD01    13                    	INC	DE
  FD02    10 F7                 	DJNZ	SWAP1		;if swap not complete
  FD04    C9                    	RET
                                ;
                                ;	LCP - Load Configuration Parameters.
                                ;
  FD05    3E 81                 LCP:	LD	A,10000001B	;default I/O byte to CRT: and LPT:
  FD07    32 0003               	LD	(IOBYTE),A
  FD0A    3A FCD4               	LD	A,(BOOTS)	;get boot diskette type
  FD0D    B7                    	OR	A
  FD0E    0E 20                 	LD	C,32
BALCONES OPERATING SYSTEM FOR THE XEROX 820-II   	MACRO-80 3.44	09-Dec-81	PAGE	1-54
TRANSIENT COMMAND PROCESSORS

  FD10    21 ED80               	LD	HL,BOOTBF	;use boot loader buffer
  FD13    28 08                 	JR	Z,LCP1		;if rigid, use system track, sector 32
  FD15    FE 1B                 	CP	26+1
  FD17    D8                    	RET	C		;no parameters from single density boots
  FD18    0E 03                 	LD	C,3		;dd configuration comes from track 0, sector 3
  FD1A    21 EE00               	LD	HL,BOOTBF+128	;use second half of boot loader buffer
  FD1D    CD FA48               LCP1:	CALL	READ
  FD20    C0                    	RET	NZ		;if can't read configuration
  FD21    3A EE00               	LD	A,(BOOTBF+128)
  FD24    D6 E5                 	SUB	0E5H
  FD26    C8                    	RET	Z
  FD27    3A EE7B               	LD	A,(Z.XONP)	;configure Xon-Xoff
  FD2A    B7                    	OR	A
  FD2B    28 03                 	JR	Z,LCP2
  FD2D    FE C9                 	CP	0C9H
  FD2F    C0                    	RET	NZ
  FD30    32 F115               LCP2:	LD	(XONENB),A
  FD33    3A EE60               	LD	A,(Z.STPR)	;configure step rate
  FD36    32 FF54               	LD	(STEPRT),A
  FD39    3A EE5F               	LD	A,(Z.SCRA)	;configure screen attribute
  FD3C    32 FD49               	LD	(LCPA),A
  FD3F    3A EE62               	LD	A,(Z.KEYM)	;configure keyboard mask
  FD42    32 FD4B               	LD	(LCPB),A
  FD45    CD FC3D               	CALL	PNEXT
  FD48    1B                    	DEFB	ESC
  FD49    00                    LCPA:	DEFB	0
  FD4A    1B                    	DEFB	ESC
  FD4B    00                    LCPB:	DEFB	0
  FD4C    04                    	DEFB	EOT
  FD4D    21 EE63               	LD	HL,Z.SIOA	;configure SIO channels
  FD50    3E 02                 	LD	A,2
  FD52    46                    LCP3:	LD	B,(HL)		;get number of bytes
  FD53    23                    	INC	HL
  FD54    4E                    	LD	C,(HL)		;get port address
  FD55    23                    	INC	HL
  FD56    ED B3                 	OTIR
  FD58    3D                    	DEC	A
  FD59    20 F7                 	JR	NZ,LCP3
  FD5B    3A EE7D               	LD	A,(Z.BAUA)	;configure channel A bit rate
  FD5E    D3 00                 	OUT	(BAUDA),A
  FD60    3A EE7E               	LD	A,(Z.BAUB)	;configure channel B bit rate
  FD63    D3 0C                 	OUT	(BAUDB),A
  FD65    3A EE77               	LD	A,(Z.SIOM)	;configure printer ready mask
  FD68    32 F10C               	LD	(SIOMSK),A
  FD6B    3A EE79               	LD	A,(Z.SIOV)	;configure printer ready value
  FD6E    32 F10E               	LD	(SIOVAL),A
  FD71    3A EE7F               	LD	A,(Z.IOBT)	;configure I/O byte
  FD74    32 0003               	LD	(IOBYTE),A
  FD77    C9                    	RET
                                	ELSE
                                BOOT	EQU	WHAT
                                	ENDIF
                                ;
                                ;	-- goto to memory location command --
                                ;
                                	OVERLAY	GOTO
  026B'                   +     	C&SEG
  FC55    B7                    	OR	A
  FC56    37                    	SCF
  FC57    C8                    	RET	Z		;if no parameters
BALCONES OPERATING SYSTEM FOR THE XEROX 820-II   	MACRO-80 3.44	09-Dec-81	PAGE	1-55
TRANSIENT COMMAND PROCESSORS

  FC58    E5                    	PUSH	HL		;set goto address
  FC59    DD E1                 	POP	IX		;LD	IX,HL
  FC5B    EB                    	EX	DE,HL		;set second argument to HL
  FC5C    7D                    	LD	A,L		;and A
  FC5D    50                    	LD	D,B		;set third argument to DE
  FC5E    5D                    	LD	E,L
  FC5F    ED 4B FFBB            	LD	BC,(PARAM4)	;set fourth argument to BC
  FC63    CD FAD6               	CALL	JPIX
  FC66    CD FC1B               	CALL	PUT2HS		;print A register
  FC69    C3 FC16               	JP	PUT4HS
                                ;
                                ;	-- memory dump command --
                                ;
                                	OVERLAY	MEMDMP
  0282'                   +     	C&SEG
  FC55    3D                    	DEC	A		;check parameter count
  FC56    28 06                 	JR	Z,MDMP2
  FC58    3D                    	DEC	A
  FC59    28 08                 	JR	Z,MDMP3
  FC5B    2A FFBD               MDMP1:	LD	HL,(LAST)
  FC5E    11 0010               MDMP2:	LD	DE,16
  FC61    18 0E                 	JR	MDMP3B
  FC63    EB                    MDMP3:	EX	DE,HL
  FC64    ED 52                 	SBC	HL,DE		;derive bytecount for dump range
  FC66    D8                    	RET	C		;if addresses backwards
  FC67    06 04                 	LD	B,4
  FC69    CB 3C                 MDMP3A:	SRL	H		;divide bytecount by 16
  FC6B    CB 1D                 	RR	L
  FC6D    10 FA                 	DJNZ	MDMP3A
  FC6F    23                    	INC	HL
  FC70    EB                    	EX	DE,HL
  FC71    CD FB8F               MDMP3B:	CALL	DUMP		;dump DE*16 bytes strting at HL
  FC74    22 FFBD               	LD	(LAST),HL
  FC77    C9                    	RET
                                ;
                                ;	-- memory examine command --
                                ;
                                	OVERLAY	VIEW
  02A5'                   +     	C&SEG
  FC55    CD FB22               VIEW0:	CALL	MDATA
  FC58    CD FC27               	CALL	ECHO
  FC5B    FE 0D                 	CP	CR
  FC5D    28 2F                 	JR	Z,VIEW4
  FC5F    FE 2D                 	CP	'-'
  FC61    28 2D                 	JR	Z,VIEW5
  FC63    FE 22                 	CP	'"'
  FC65    20 08                 	JR	NZ,VIEW1
  FC67    CD F009               	CALL	CONIN
  FC6A    CD F00C               	CALL	CONOUT
  FC6D    18 1B                 	JR	VIEW3
  FC6F    CD FBF3               VIEW1:	CALL	HEXBIN
  FC72    3F                    	CCF
  FC73    D0                    	RET	NC
  FC74    4F                    	LD	C,A
  FC75    87                    	ADD	A,A
  FC76    87                    	ADD	A,A
  FC77    87                    	ADD	A,A
  FC78    87                    	ADD	A,A
  FC79    47                    	LD	B,A
  FC7A    CD FC27               	CALL	ECHO
BALCONES OPERATING SYSTEM FOR THE XEROX 820-II   	MACRO-80 3.44	09-Dec-81	PAGE	1-56
TRANSIENT COMMAND PROCESSORS

  FC7D    D6 0D                 	SUB	CR
  FC7F    28 08                 	JR	Z,VIEW2
  FC81    C6 0D                 	ADD	A,CR
  FC83    CD FBF3               	CALL	HEXBIN
  FC86    3F                    	CCF
  FC87    D0                    	RET	NC
  FC88    48                    	LD	C,B
  FC89    81                    VIEW2:	ADD	A,C
  FC8A    77                    VIEW3:	LD	(HL),A
  FC8B    CD FB0E               	CALL	CHECK
  FC8E    23                    VIEW4:	INC	HL
  FC8F    23                    	INC	HL
  FC90    2B                    VIEW5:	DEC	HL
  FC91    18 C2                 	JR	VIEW0
                                	IF	OPTIONS AND O.BAUD
                                ;
                                ;	-- Baud Rate Command --
                                ;
                                ;	* B<rate> [channel]	;channel may be 0,1 or A/B
                                ;
                                	OVERLAY	BAUD
  02E3'                   +     	C&SEG
  FC55    B7                    	OR	A
  FC56    37                    	SCF
  FC57    C8                    	RET	Z		;if no parameters
  FC58    3D                    	DEC	A
  FC59    20 02                 	JR	NZ,BAUD1	;if channel specified
  FC5B    1E 01                 	LD	E,1		;set channel 1 (B)
  FC5D    CB 43                 BAUD1:	BIT	0,E		;check port
  FC5F    0E 00                 	LD	C,BAUDA		;set communications port
  FC61    28 02                 	JR	Z,BAUD2
  FC63    0E 0C                 	LD	C,BAUDB		;set printer port
  FC65    ED 69                 BAUD2:	OUT	(C),L		;set baud rate
  FC67    AF                    	XOR	A
  FC68    C9                    	RET
                                	ELSE
                                BAUD	EQU	WHAT
                                	ENDIF
                                	IF	OPTIONS AND O.DISK
                                ;
                                ;	-- disk sector read/write command --
                                ;
                                ;	* R <unit> <track> <sector> <address>
                                ;	* W <unit> <track> <sector> <address>
                                ;
                                	OVERLAY	DSKCMD
  02F7'                   +     	C&SEG
  FC55    47                    	LD	B,A
  FC56    3A FF5C               	LD	A,(LINBUF)
  FC59    D6 57                 	SUB	'W'
  FC5B    20 1E                 	JR	NZ,DSK1
  FC5D    B0                    	OR	B
  FC5E    20 16                 	JR	NZ,DSK0
  FC60    4F                    	LD	C,A
  FC61    CD F2FE               	CALL	FASTCRT
  FC64    23                    	INC	HL
  FC65    11 0011               	LD	DE,17
  FC68    01 0015               	LD	BC,21
  FC6B    EB                    	EX	DE,HL
  FC6C    AF                    	XOR	A
BALCONES OPERATING SYSTEM FOR THE XEROX 820-II   	MACRO-80 3.44	09-Dec-81	PAGE	1-57
TRANSIENT COMMAND PROCESSORS

  FC6D    32 FC54               	LD	($-25),A
  FC70    CD F2A3               	CALL	CRTLDIR
  FC73    C3 FC36               	JP	CRLF
  FC76    3A FC54               DSK0:	LD	A,($-34)
  FC79    B7                    	OR	A
  FC7A    C0                    	RET	NZ
  FC7B    78                    DSK1:	LD	A,B
  FC7C    FE 04                 	CP	4		;check parameter count
  FC7E    37                    	SCF
  FC7F    C0                    	RET	NZ
                                	IF	0
                                	LD	C,L		;use first arg as unit#
                                	CALL	SELECT
                                	JR	NZ,DSKERR
                                	LD	A,(PARAM2)
                                	LD	C,A		;get track number
                                	CALL	SEEK
                                	LD	A,(PARAM3)
                                	LD	C,A		;get sector number
                                DSK2:	LD	HL,(PARAM4)
                                	LD	A,(LINBUF)	;get command read or write
                                	CP	'W'
                                	JR	NZ,DSK3		;go to read command
                                	CALL	WRITE
                                	JR	DSK4
                                DSK3:	CALL	READ
                                DSK4:
                                	ENDIF
  FC80    21 FFB5               	LD	HL,PARAM1	;move parameters to disk command
  FC83    11 FA10               	LD	DE,PHYDRV
  FC86    01 0007               	LD	BC,3*2+1
  FC89    ED A0                 	LDI
  FC8B    23                    	INC	HL		;skip upper unit
  FC8C    ED B0                 	LDIR
  FC8E    05                    	DEC	B		;set select operation
  FC8F    CD FA51               	CALL	XQPHYS		;execute physical select
  FC92    7D                    	LD	A,L
  FC93    B4                    	OR	H
  FC94    28 16                 	JR	Z,DSKERR	;if select error
  FC96    06 00                 	LD	B,0		;preset write command
  FC98    3A FF5C               	LD	A,(LINBUF)	;get command
  FC9B    FE 57                 	CP	'W'
  FC9D    28 01                 	JR	Z,DSK3		;if write
  FC9F    04                    	INC	B
  FCA0    CD FA51               DSK3:	CALL	XQPHYS		;execute driver
  FCA3    2A FFBB               	LD	HL,(PARAM4)
  FCA6    11 0010               	LD	DE,16		;assume 256-byte sector
  FCA9    CA FB8F               	JP	Z,DUMP		;dump disk read buffer if no error
  FCAC    CD FC3D               DSKERR:	CALL	PNEXT
  FCAF    64 73 6B 20           	DEFM	'dsk err'
  FCB3    65 72 72              
  FCB6    04                    	DEFB	EOT
  FCB7    C9                    	RET
                                	ELSE	;(not disk options)
                                DSKCMD	EQU	WHAT
                                	ENDIF
                                	IF	OPTIONS AND O.INPC
                                ;
                                ;	-- read input port command --
                                ;
BALCONES OPERATING SYSTEM FOR THE XEROX 820-II   	MACRO-80 3.44	09-Dec-81	PAGE	1-58
TRANSIENT COMMAND PROCESSORS

                                ;	* I <16-bit port address>
                                ;
                                	OVERLAY	INCMD
  035A'                   +     	C&SEG
  FC55    3D                    	DEC	A
  FC56    37                    	SCF
  FC57    C0                    	RET	NZ		;if not one parameter
  FC58    4D                    	LD	C,L		;set input port
  FC59    44                    	LD	B,H
  FC5A    CD FC36               IN1:	CALL	CRLF
  FC5D    79                    	LD	A,C		;display port address
  FC5E    CD FC1B               	CALL	PUT2HS
  FC61    ED 78                 IN2:	IN	A,(C)
  FC63    CD FC1B               	CALL	PUT2HS
  FC66    CD F009               	CALL	CONIN		;read character
  FC69    FE 20                 	CP	' '
  FC6B    28 F4                 	JR	Z,IN2		;read same port again
  FC6D    FE 0D                 	CP	CR
  FC6F    28 06                 	JR	Z,IN3		;if read next
  FC71    FE 2D                 	CP	'-'
  FC73    28 04                 	JR	Z,IN4		;if read previous
  FC75    B7                    	OR	A		;clear carry
  FC76    C9                    	RET
  FC77    03                    IN3:	INC	BC		;advance to next port
  FC78    03                    	INC	BC
  FC79    0B                    IN4:	DEC	BC
  FC7A    18 DE                 	JR	IN1
                                	ELSE
                                INCMD	EQU	WHAT
                                	ENDIF
                                	IF	OPTIONS AND O.OUTC
                                ;
                                ;	-- write to output port command --
                                ;
                                ;	* O <16-bit port address> <8-bit value>
                                ;
                                	OVERLAY	OUTCMD
  0381'                   +     	C&SEG
  FC55    FE 02                 	CP	2		;require two parameters
  FC57    37                    	SCF
  FC58    C0                    	RET	NZ		;if not 2 parameters
  FC59    4D                    	LD	C,L		;set 16 bit output port address
  FC5A    44                    	LD	B,H
  FC5B    ED 59                 	OUT	(C),E		;output to d0-d7 and address to a0-a17
  FC5D    B7                    	OR	A
  FC5E    C9                    	RET
                                	ELSE
                                OUTCMD	EQU	WHAT
                                	ENDIF
                                	IF	OPTIONS AND O.RAMT
                                ;
                                ;	-- memory read/write diagnostic command --
                                ;
                                ;	* X <first addr> <last addr>
                                ;
                                	OVERLAY	TEST
  038B'                   +     	C&SEG
  FC55    FE 02                 	CP	2		;check parameter count
  FC57    37                    	SCF
  FC58    C0                    	RET	NZ
BALCONES OPERATING SYSTEM FOR THE XEROX 820-II   	MACRO-80 3.44	09-Dec-81	PAGE	1-59
TRANSIENT COMMAND PROCESSORS

  FC59    13                    	INC	DE
  FC5A    5A                    	LD	E,D		;get ending page address into E
  FC5B    54                    	LD	D,H		;get starting page address into D
  FC5C    06 00                 	LD	B,0		;initialize pass counter
  FC5E    62                    TEST1:	LD	H,D		;point HL to start of block
  FC5F    2E 00                 	LD	L,0
  FC61    7D                    TEST2:	LD	A,L
  FC62    AC                    	XOR	H		;generate test byte
  FC63    A8                    	XOR	B
  FC64    77                    	LD	(HL),A		;store byte in RAM
  FC65    23                    	INC	HL
  FC66    7C                    	LD	A,H
  FC67    BB                    	CP	E		;check for end of test block
  FC68    20 F7                 	JR	NZ,TEST2
  FC6A    62                    	LD	H,D		;now read back each byte & compare
  FC6B    2E 00                 	LD	L,0		;point HL back to start
  FC6D    7D                    TEST3:	LD	A,L
  FC6E    AC                    	XOR	H		;re-generate test byte data
  FC6F    A8                    	XOR	B
  FC70    CD FB0E               	CALL	CHECK		;verify memory data still good
  FC73    C0                    	RET	NZ		;exit if escape request is indicated
  FC74    23                    	INC	HL		; else go on to next byte
  FC75    7C                    	LD	A,H
  FC76    BB                    	CP	E		;check for end of block
  FC77    20 F4                 	JR	NZ,TEST3
  FC79    04                    	INC	B		;bump pass count
  FC7A    3E 2B                 	LD	A,'+'
  FC7C    CD FC20               	CALL	OUTPUT
  FC7F    28 DD                 	JR	Z,TEST1		;do another pass if user not unhappy
  FC81    C9                    	RET
                                	ELSE
                                TEST	EQU	WHAT
                                	ENDIF
                                	IF	OPTIONS AND O.FILL
                                ;
                                ;	-- fill memory with constant command --
                                ;
                                	OVERLAY	FILL
  03B8'                   +     	C&SEG
  FC55    FE 03                 	CP	3		;check if parameter count=3
  FC57    37                    	SCF
  FC58    C0                    	RET	NZ
  FC59    71                    FILL1:	LD	(HL),C
  FC5A    E5                    	PUSH	HL
  FC5B    B7                    	OR	A
  FC5C    ED 52                 	SBC	HL,DE		;compare HL to end address in DE
  FC5E    E1                    	POP	HL
  FC5F    23                    	INC	HL		;advance pointer after comparison
  FC60    38 F7                 	JR	C,FILL1
  FC62    C9                    	RET
                                	ELSE
                                FILL	EQU	WHAT
                                	ENDIF
                                	IF	OPTIONS AND O.MOVE
                                ;
                                ;	-- memory block move command --
                                ;
                                	OVERLAY	BLOCK
  03C6'                   +     	C&SEG
  FC55    FE 03                 	CP	3		;check if parameter count=3
BALCONES OPERATING SYSTEM FOR THE XEROX 820-II   	MACRO-80 3.44	09-Dec-81	PAGE	1-60
TRANSIENT COMMAND PROCESSORS

  FC57    37                    	SCF
  FC58    C0                    	RET	NZ
  FC59    CD FC49               	CALL	BLOCAD
  FC5C    79                    	LD	A,C
  FC5D    B0                    	OR	B
  FC5E    C8                    	RET	Z		;exit now if BC=0
  FC5F    ED B0                 	LDIR
  FC61    C9                    	RET
                                	ELSE
                                BLOCK	EQU	WHAT
                                	ENDIF
                                	IF	OPTIONS AND O.VERF
                                ;
                                ;	-- memory block compare command --
                                ;
                                	OVERLAY	VERCMD
  03D3'                   +     	C&SEG
  FC55    FE 03                 	CP	3		;check if parameter count=3
  FC57    37                    	SCF
  FC58    C0                    	RET	NZ
  FC59    CD FC49               	CALL	BLOCAD
  FC5C    18 08                 	JR	VERF2
  FC5E    1A                    VERF1:	LD	A,(DE)
  FC5F    CD FB0E               	CALL	CHECK		;compare data @ DE and @ HL
  FC62    C0                    	RET	NZ		;exit if escape request is indicated
  FC63    23                    	INC	HL
  FC64    13                    	INC	DE
  FC65    0B                    	DEC	BC
  FC66    78                    VERF2:	LD	A,B
  FC67    B1                    	OR	C
  FC68    20 F4                 	JR	NZ,VERF1
  FC6A    C9                    	RET
                                	ELSE
                                VERCMD	EQU	WHAT
                                	ENDIF
                                	IF	OPTIONS AND O.PROT
                                ;
                                ;	Printer Protocol.
                                ;
                                	OVERLAY	PROTO
  03E9'                   +     	C&SEG
  FC55    3D                    	DEC	A
  FC56    28 10                 	JR	Z,PROT1		;if one parameter
  FC58    D6 02                 	SUB	2
  FC5A    37                    	SCF
  FC5B    C0                    	RET	NZ
  FC5C    7B                    	LD	A,E
  FC5D    F6 04                 	OR	4
  FC5F    32 F10C               	LD	(SIOMSK),A
  FC62    79                    	LD	A,C
  FC63    F6 04                 	OR	4
  FC65    32 F10E               	LD	(SIOVAL),A
  FC68    7D                    PROT1:	LD	A,L
  FC69    B7                    	OR	A
  FC6A    3E C9                 	LD	A,0C9H
  FC6C    28 01                 	JR	Z,PROT2
  FC6E    AF                    	XOR	A
  FC6F    32 F115               PROT2:	LD	(XONENB),A
  FC72    C9                    	RET
                                	ELSE
BALCONES OPERATING SYSTEM FOR THE XEROX 820-II   	MACRO-80 3.44	09-Dec-81	PAGE	1-61
TRANSIENT COMMAND PROCESSORS

                                PROTO	EQU	WHAT
                                	ENDIF
                                	IF	(OPTIONS AND O.TYPE) NE 0
                                ;
                                ;	TYPE - Simple Typewriter.
                                ;
                                	OVERLAY	TYPE
  0407'                   +     	C&SEG
  FC55    B7                    	OR	A
  FC56    28 06                 	JR	Z,TYP0		;if no baud rate
  FC58    3D                    	DEC	A
  FC59    37                    	SCF
  FC5A    C0                    	RET	NZ		;if more than one parameter
  FC5B    7D                    	LD	A,L
  FC5C    D3 0C                 	OUT	(BAUDB),A	;set printer baud rate
  FC5E    CD FC3D               TYP0:	CALL	PNEXT
  FC61    1A                    	DEFB	CLRS
                                	IF	(OPTIONS AND O.ESCT) NE 0
  FC62    1B 31                 	DEFB	ESC,'1'		;set 8 bit keyboard mode
                                	ELSE
                                	DEFB	'O'-'@'		;set 8 bit keyboard mode
                                	ENDIF
  FC64    54 79 70 65           	DEFM	'Typewriter mode.  Touch CTRL+ESC to exit.'
  FC68    77 72 69 74           
  FC6C    65 72 20 6D           
  FC70    6F 64 65 2E           
  FC74    20 20 54 6F           
  FC78    75 63 68 20           
  FC7C    43 54 52 4C           
  FC80    2B 45 53 43           
  FC84    20 74 6F 20           
  FC88    65 78 69 74           
  FC8C    2E                    
  FC8D    0D 0A 04              	DEFB	CR,LF,EOT
  FC90    CD F0E5               TYP1:	CALL	SIOST		;status printer
  FC93    28 0F                 	JR	Z,TYP2		;if char not ready
  FC95    CD F0F0               	CALL	SIOIN		;read character
  FC98    E6 7F                 	AND	7FH		;strip parity bit
  FC9A    CD F00C               	CALL	CONOUT
  FC9D    FE 0D                 	CP	CR
  FC9F    3E 0A                 	LD	A,LF
  FCA1    CC F00C               	CALL	Z,CONOUT
  FCA4    CD F006               TYP2:	CALL	CONST		;status console
  FCA7    28 E7                 	JR	Z,TYP1		;if user not active
  FCA9    CD F009               	CALL	CONIN		;read keyboard
  FCAC    CD F0F8               	CALL	SIOOUT		;send character to printer
  FCAF    CD F00C               	CALL	CONOUT		;and screen
  FCB2    FE 0D                 	CP	CR
  FCB4    20 DA                 	JR	NZ,TYP1		;if not CR
  FCB6    3E 0A                 	LD	A,LF		;send line feed to screen and printer
  FCB8    CD F0F8               	CALL	SIOOUT
  FCBB    CD F00C               	CALL	CONOUT
  FCBE    18 D0                 	JR	TYP1
                                	ELSE
                                TYPE	EQU	WHAT
                                	ENDIF
                                	IF	OPTIONS AND O.TERM
                                ;
                                ;	Terminal / Scroll Driver.
                                ;
BALCONES OPERATING SYSTEM FOR THE XEROX 820-II   	MACRO-80 3.44	09-Dec-81	PAGE	1-62
TERMINAL / SCREEN MANAGER		

                                	SUBTTL	TERMINAL / SCREEN MANAGER		
                                	PAGE
BALCONES OPERATING SYSTEM FOR THE XEROX 820-II   	MACRO-80 3.44	09-Dec-81	PAGE	1-63
TERMINAL / SCREEN MANAGER		

                                
                                	OVERLAY	TERM
  0472'                   +     	C&SEG
  000F                          PASS8	EQU	15
  0016                          INSLIN	EQU	22
  0017                          DELLIN	EQU	23
  001A                          CLRCHR	EQU	26
  001E                          HOMSCR	EQU	30
  001F                          FORCE	EQU	31
  0081                          KUPLIN	EQU	81H		;Move top line off screen to buffer
  0082                          KDNLIN	EQU	82H		;Move bottom line off screen to buffer
  00B1                          RMTTOG	EQU	80H+'1'		;Toggle Remote Echo
  00B2                          RMTALF	EQU	80H+'2'		;Toggle Remote Auto LF after CR
  008A                          LOCALF	EQU	80H+LF		;Toggle Local Auto LF after CR
  00FF                          TYPTOG	EQU	80H+7FH		;Toggle Local Echo
  00AE                          BRKKEY	EQU	80H+'.'		;Hardware BREAK function
  0007                          S.LECHO	EQU	7		;local echo
  0006                          S.RECHO	EQU	6		;remote echo
  0005                          S.AUTOL	EQU	5		;local auto LF after CR
  0004                          S.AUTOR	EQU	4		;remote auto LF after CR
  0100                          TRMBUF	EQU	100H
  EE80                          BUFTOP	EQU	TRMBUF+760*80
  EF00                          SIOBUF	EQU	MONITR-100H
  EF00                          TRMSTK	EQU	SIOBUF
  FC55    FE 02                 	CP	2		;check number of arguments
  FC57    3F                    	CCF
  FC58    D8                    	RET	C		;if more than 1
  FC59    B7                    	OR	A
  FC5A    20 02                 	JR	NZ,TERM1	;if port specifed
  FC5C    2E 00                 	LD	L,0
  FC5E    01 0406               TERM1:	LD	BC,SIOCPA+SIODPA*256	;preset A channel ports
  FC61    CB 45                 	BIT	0,L
  FC63    28 03                 	JR	Z,TERM2		;if 0/1 or A/B
  FC65    01 0507               	LD	BC,SIOCPB+SIODPB*256	;set B channel ports
  FC68    ED 43 FE78            TERM2:	LD	(PORTS),BC
  FC6C    31 EF00               	LD	SP,TRMSTK
  FC6F    CD FC3D               	CALL	PNEXT
  FC72    1A                    	DB	CLRS
                                	IF	OPTIONS AND O.ESCT
  FC73    1B 31                 	DB	ESC,'1'
                                	ELSE
                                	DB	PASS8
                                	ENDIF
  FC75    54 65 72 6D           	DB	'Terminal mode.  Touch CTRL+ESC to exit.'
  FC79    69 6E 61 6C           
  FC7D    20 6D 6F 64           
  FC81    65 2E 20 20           
  FC85    54 6F 75 63           
  FC89    68 20 43 54           
  FC8D    52 4C 2B 45           
  FC91    53 43 20 74           
  FC95    6F 20 65 78           
  FC99    69 74 2E              
  FC9C    0D 0A                 	DB	CR,LF
  FC9E    04                    	DB	EOT
  FC9F    FD 21 FEE5            	LD	IY,STATUS	;set pointer to status byte
  FCA3    CD F006               TERM3:	CALL	CONST		;status keyboard
  FCA6    C4 FCB1               	CALL	NZ,PKI		;process keyboard input
  FCA9    CD FEC8               	CALL	SIOIST		;status SIO
BALCONES OPERATING SYSTEM FOR THE XEROX 820-II   	MACRO-80 3.44	09-Dec-81	PAGE	1-64
TERMINAL / SCREEN MANAGER		

  FCAC    C4 FD40               	CALL	NZ,PRC		;process remote character
  FCAF    18 F2                 	JR	TERM3		;until user escapes
                                ;
                                ;	PKI - Process Keyboard Input.
                                ;
  FCB1    3E 00                 PKI:	LD	A,0
  FCB2                          BRKFLG	EQU	$-1
  FCB3    B7                    	OR	A
  FCB4    C4 FD21               	CALL	NZ,CLRBRK	;terminate pending break
  FCB7    CD F009               	CALL	CONIN		;read input
  FCBA    CB 7F                 	BIT	7,A
  FCBC    20 0B                 	JR	NZ,PKI1		;if function key
  FCBE    CD FD5F               	CALL	SNDRMT		;send it to remote
  FCC1    FD CB 00 7E           	BIT	S.LECHO,(IY)
  FCC5    C4 FD4C               	CALL	NZ,SNDLOC	;if local echo enabled, display console input
  FCC8    C9                    	RET
  FCC9    FE 81                 PKI1:	CP	KUPLIN
  FCCB    20 12                 	JR	NZ,PKI2		;if not scroll up
  FCCD    CD FE50               	CALL	GCP		;get cursor position
  FCD0    CD FC3D               	CALL	PNEXT		;home screen, then delete top line
                                	IF	OPTIONS AND O.ESCT
  FCD3    1E 1B 52 04           	DEFB	HOMSCR,ESC,'R',EOT
                                	ELSE
                                	DEFB	HOMSCR,DELLIN,EOT
                                	ENDIF
  FCD7    CD FD89               	CALL	LTL		;link top line
  FCDA    CD FDEB               	CALL	DBL		;display bottom line
  FCDD    18 14                 	JR	PKI3
  FCDF    FE 82                 PKI2:	CP	KDNLIN
  FCE1    20 13                 	JR	NZ,PKI4		;if not scroll down
  FCE3    CD FE50               	CALL	GCP		;get cursor position
  FCE6    CD FC3D               	CALL	PNEXT		;home screen, insert blank line
                                	IF	OPTIONS AND O.ESCT
  FCE9    1E 1B 45 04           	DEFB	HOMSCR,ESC,'E',EOT
                                	ELSE
                                	DEFB	HOMSCR,DELLIN,EOT
                                	ENDIF
  FCED    CD FE0B               	CALL	LBL		;link bottom line
  FCF0    CD FDB1               	CALL	DTL		;display top line
  FCF3    C3 FE6E               PKI3:	JP	RCP		;restore cursor position
  FCF6    FE FF                 PKI4:	CP	TYPTOG
  FCF8    20 04                 	JR	NZ,PKI5
  FCFA    3E 80                 	LD	A,1 SHL S.LECHO
  FCFC    18 16                 	JR	PKI8
  FCFE    FE B1                 PKI5:	CP	RMTTOG
  FD00    20 04                 	JR	NZ,PKI6
  FD02    3E 40                 	LD	A,1 SHL S.RECHO
  FD04    18 0E                 	JR	PKI8
  FD06    FE 8A                 PKI6:	CP	LOCALF
  FD08    20 04                 	JR	NZ,PKI7
  FD0A    3E 20                 	LD	A,1 SHL S.AUTOL
  FD0C    18 06                 	JR	PKI8
  FD0E    FE B2                 PKI7:	CP	RMTALF
  FD10    20 09                 	JR	NZ,PKI9
  FD12    3E 10                 	LD	A,1 SHL S.AUTOR
  FD14    FD AE 00              PKI8:	XOR	(IY)
  FD17    FD 77 00              	LD	(IY),A
  FD1A    C9                    	RET
  FD1B    FE AE                 PKI9:	CP	BRKKEY
  FD1D    C0                    	RET	NZ
BALCONES OPERATING SYSTEM FOR THE XEROX 820-II   	MACRO-80 3.44	09-Dec-81	PAGE	1-65
TERMINAL / SCREEN MANAGER		

  FD1E    3A FCB2               	LD	A,(BRKFLG)
  FD21    EE FF                 CLRBRK:	XOR	-1
  FD23    32 FCB2               	LD	(BRKFLG),A
  FD26    16 10                 	LD	D,10H		;set line SPACING
  FD28    20 02                 	JR	NZ,SETBRK
  FD2A    16 00                 	LD	D,0		;set line MARKING
  FD2C    ED 4B FE78            SETBRK:	LD	BC,(PORTS)
  FD30    3E 05                 	LD	A,5		;set up WR5
  FD32    F3                    	DI
  FD33    ED 79                 	OUT	(C),A
  FD35    3E AA                 	LD	A,10101010B	;assert DTR, 7 bpc, RTS, Tx Enb
  FD37    B2                    	OR	D
  FD38    ED 79                 	OUT	(C),A
  FD3A    FB                    	EI
  FD3B    3E FF                 	LD	A,0FFH
  FD3D    C3 FE90               	JP	SIOOT		;send RUBOUT to allow MARKING
                                ;
                                ;	PRC - Process Remote Character.
                                ;
  FD40    CD FED6               PRC:	CALL	SIOINC		;read remote character
  FD43    FD CB 00 76           	BIT	S.RECHO,(IY)
  FD47    C4 FD5F               	CALL	NZ,SNDRMT	;echo it back
  FD4A    18 26                 	JR	DOC		;display it locally
                                ;
                                ;	SNDLOC - Send character to screen.
                                ;
  FD4C    CD FD72               SNDLOC:	CALL	DOC
  FD4F    FE 0D                 	CP	CR
  FD51    C0                    	RET	NZ
  FD52    FD CB 00 6E           	BIT	S.AUTOL,(IY)
  FD56    C8                    	RET	Z
  FD57    3E 0A                 	LD	A,LF
  FD59    CD FD72               	CALL	DOC
  FD5C    3E 0D                 	LD	A,CR
  FD5E    C9                    	RET
                                ;
                                ;	SNDRMT - Send character to remote.
                                ;
  FD5F    CD FE90               SNDRMT:	CALL	SIOOT
  FD62    FE 0D                 	CP	CR
  FD64    C0                    	RET	NZ
  FD65    FD CB 00 66           	BIT	S.AUTOR,(IY)
  FD69    C8                    	RET	Z
  FD6A    3E 0A                 	LD	A,LF
  FD6C    CD FE90               	CALL	SIOOT
  FD6F    3E 0D                 	LD	A,CR
  FD71    C9                    	RET
                                ;
                                ;	DOC - Display One Character.
                                ;
  FD72    FE 7F                 DOC:	CP	7FH
  FD74    C8                    	RET	Z		;don't display RUBOUT
  FD75    4F                    	LD	C,A		;send it to screen
  FD76    C5                    	PUSH	BC
  FD77    CD FE9B               	CALL	OUTCRT		;display character
  FD7A    C1                    	POP	BC
  FD7B    47                    	LD	B,A
  FD7C    79                    	LD	A,C
  FD7D    FE 0A                 	CP	LF
  FD7F    C0                    	RET	NZ
BALCONES OPERATING SYSTEM FOR THE XEROX 820-II   	MACRO-80 3.44	09-Dec-81	PAGE	1-66
TERMINAL / SCREEN MANAGER		

  FD80    04                    	INC	B
  FD81    05                    	DEC	B
  FD82    C0                    	RET	NZ		;if line feed did not scroll
  FD83    CD FD89               	CALL	LTL		;link top line
  FD86    3E 0A                 	LD	A,LF
  FD88    C9                    	RET
                                ;
                                ;	LTL - Link Top Line.
                                ;
  FD89    21 FF5C               LTL:	LD	HL,LINBUF
  FD8C    ED 5B FEE8            	LD	DE,(TOPPTR)	;set address of line above screen
  FD90    01 0050               	LD	BC,80
  FD93    ED B0                 	LDIR			;move line
  FD95    CD FE34               	CALL	WUP		;wrap upper pointer
  FD98    ED 53 FEE8            	LD	(TOPPTR),DE	;set new top line address
  FD9C    2A FEE6               	LD	HL,(BOTPTR)
  FD9F    EB                    	EX	DE,HL
  FDA0    B7                    	OR	A
  FDA1    ED 52                 	SBC	HL,DE
  FDA3    C0                    	RET	NZ
  FDA4    11 0050               	LD	DE,80
  FDA7    19                    	ADD	HL,DE		;advance bottom pointer
  FDA8    EB                    	EX	DE,HL
  FDA9    CD FE34               	CALL	WUP		;wrap upper pointer
  FDAC    ED 53 FEE6            	LD	(BOTPTR),DE
  FDB0    C9                    	RET
                                ;
                                ;	DTL - Display Top Line.
                                ;
  FDB1    ED 5B FEE8            DTL:	LD	DE,(TOPPTR)	;get line above screen
  FDB5    21 FFB0               	LD	HL,-80
  FDB8    19                    	ADD	HL,DE
  FDB9    CD FE41               	CALL	WLP		;wrap lower pointer
  FDBC    22 FEE8               	LD	(TOPPTR),HL
  FDBF    01 0050               	LD	BC,80
                                ;
                                ;	DLN - Display line.
                                ;
  FDC2    E5                    DLN:	PUSH	HL
  FDC3    09                    	ADD	HL,BC
  FDC4    2B                    	DEC	HL
  FDC5    3E 20                 	LD	A,' '
  FDC7    ED A9                 DLN1:	CPD
  FDC9    20 03                 	JR	NZ,DLN2		;if not trailing blank
  FDCB    EA FDC7               	JP	PE,DLN1
  FDCE    E1                    DLN2:	POP	HL
  FDCF    E0                    	RET	PO		;if entire line blank
  FDD0    41                    	LD	B,C
  FDD1    04                    	INC	B
  FDD2    C5                    DLN3:	PUSH	BC
  FDD3    7E                    	LD	A,(HL)
  FDD4    4F                    	LD	C,A
  FDD5    FE 20                 	CP	' '
  FDD7    30 08                 	JR	NC,DLN4
  FDD9    E5                    	PUSH	HL
  FDDA    0E 1F                 	LD	C,FORCE		;force next character out
  FDDC    CD FE9B               	CALL	OUTCRT
  FDDF    E1                    	POP	HL
  FDE0    4E                    	LD	C,(HL)
  FDE1    23                    DLN4:	INC	HL		;advance address
BALCONES OPERATING SYSTEM FOR THE XEROX 820-II   	MACRO-80 3.44	09-Dec-81	PAGE	1-67
TERMINAL / SCREEN MANAGER		

  FDE2    E5                    	PUSH	HL
  FDE3    CD FE9B               	CALL	OUTCRT		;display character
  FDE6    E1                    	POP	HL
  FDE7    C1                    	POP	BC
  FDE8    10 E8                 	DJNZ	DLN3		;if not entire line
  FDEA    C9                    	RET
                                ;
                                ;	DBL - Display bottom line.
                                ;
  FDEB    CD FC3D               DBL:	CALL	PNEXT		;plant cursor on bottom line
  FDEE    1B 3D 37 20           	DB	ESC,'=',' '+23,' ',EOT
  FDF2    04                    
  FDF3    2A FEE6               	LD	HL,(BOTPTR)
  FDF6    E5                    	PUSH	HL
  FDF7    01 004F               	LD	BC,80-1
  FDFA    CD FDC2               	CALL	DLN		;display bottom line
  FDFD    E1                    	POP	HL
  FDFE    01 0050               	LD	BC,80
  FE01    09                    	ADD	HL,BC
  FE02    EB                    	EX	DE,HL
  FE03    CD FE34               	CALL	WUP
  FE06    ED 53 FEE6            	LD	(BOTPTR),DE
  FE0A    C9                    	RET
                                ;
                                ;	LBL - link bottom line.
                                ;
  FE0B    01 0050               LBL:	LD	BC,80
  FE0E    2A FEE6               	LD	HL,(BOTPTR)
  FE11    B7                    	OR	A
  FE12    ED 42                 	SBC	HL,BC
  FE14    CD FE41               	CALL	WLP
  FE17    22 FEE6               	LD	(BOTPTR),HL
  FE1A    EB                    	EX	DE,HL
  FE1B    2A FEE8               	LD	HL,(TOPPTR)
  FE1E    B7                    	OR	A
  FE1F    ED 52                 	SBC	HL,DE
  FE21    20 0B                 	JR	NZ,LBL1
  FE23    2A FEE8               	LD	HL,(TOPPTR)
  FE26    ED 42                 	SBC	HL,BC
  FE28    CD FE41               	CALL	WLP
  FE2B    22 FEE8               	LD	(TOPPTR),HL
  FE2E    21 FF5C               LBL1:	LD	HL,LINBUF
  FE31    ED B0                 	LDIR			;move gold mine to buffer
  FE33    C9                    	RET
                                ;
                                ;	WUP - Wrap upper pointer.
                                ;
  FE34    E5                    WUP:	PUSH	HL
  FE35    21 EE80               	LD	HL,BUFTOP	;set end of buffer address
  FE38    37                    	SCF
  FE39    ED 52                 	SBC	HL,DE
  FE3B    E1                    	POP	HL
  FE3C    D0                    	RET	NC		;if not past end of buffer
  FE3D    11 0100               	LD	DE,TRMBUF	;start over at beggining of buffer
  FE40    C9                    	RET
                                ;
                                ;	WLP - Wrap lower pointer.
                                ;
  FE41    E5                    WLP:	PUSH	HL
  FE42    D5                    	PUSH	DE
BALCONES OPERATING SYSTEM FOR THE XEROX 820-II   	MACRO-80 3.44	09-Dec-81	PAGE	1-68
TERMINAL / SCREEN MANAGER		

  FE43    11 0100               	LD	DE,TRMBUF	;set start of buffer address
  FE46    B7                    	OR	A
  FE47    ED 52                 	SBC	HL,DE
  FE49    D1                    	POP	DE
  FE4A    E1                    	POP	HL
  FE4B    D0                    	RET	NC		;if not below start of buffer
  FE4C    21 EE30               	LD	HL,BUFTOP-80	;start over at end of buffer
  FE4F    C9                    	RET
                                ;
                                ;	GCP - get cursor position.
                                ;
  FE50    ED 4B FFB1            GCP:	LD	BC,(BASE)
  FE54    2A FFAC               	LD	HL,(CURSOR)
  FE57    45                    	LD	B,L		;get column to B
  FE58    CB B8                 	RES	7,B
  FE5A    29                    	ADD	HL,HL		;set screen row to H
  FE5B    7C                    	LD	A,H
  FE5C    D6 60                 	SUB	CRTBAS*2
  FE5E    91                    	SUB	C		;row = 23-(base-curh)
  FE5F    C6 17                 	ADD	A,23
  FE61    D6 18                 GCP1:	SUB	24
  FE63    30 FC                 	JR	NC,GCP1
  FE65    4F                    	LD	C,A		;set row
  FE66    21 1F38               	LD	HL,'  '+24-100H	;offset for <esc>=
  FE69    09                    	ADD	HL,BC
  FE6A    22 FE73               	LD	(RCPA),HL
  FE6D    C9                    	RET
                                ;
                                ;	RCP - Restore cursor position.
                                ;
  FE6E    CD FC3D               RCP:	CALL	PNEXT
  FE71    1B 3D                 	DB	ESC,'='
  FE73    20 20                 RCPA:	DB	'  '
  FE75    04                    	DB	EOT
  FE76    C9                    	RET
                                ;
                                ;	SIO drivers.
                                ;
  FE77    01 FE78               SIOINS:	LD	BC,PORTS	;set status port to c
  FE78                          PORTS	EQU	$-2
  FE7A    ED 78                 	IN	A,(C)
  FE7C    CB 47                 	BIT	0,A		;test rca
  FE7E    C9                    	RET
  FE7F    CD FE77               SIOINP:	CALL	SIOINS		;get status
  FE82    28 FB                 	JR	Z,SIOINP	;if not ready
  FE84    48                    	LD	C,B		;set data port address
  FE85    ED 78                 	IN	A,(C)
  FE87    CB BF                 	RES	7,A		;pitch parity bit
  FE89    C9                    	RET
  FE8A    CD FE77               SIORDT:	CALL	SIOINS		;get SIO status
  FE8D    CB 57                 	BIT	2,A		;test TX empty
  FE8F    C9                    	RET
  FE90    08                    SIOOT:	EX	AF,AF'		;save char to send
  FE91    CD FE8A               SIOOT1:	CALL	SIORDT		;test transmit ready status
  FE94    28 FB                 	JR	Z,SIOOT1	;if not ready
  FE96    48                    	LD	C,B
  FE97    08                    	EX	AF,AF'
  FE98    ED 79                 	OUT	(C),A
  FE9A    C9                    	RET
  FE9B    CD FEA7               OUTCRT:	CALL	SIOPL		;poll for input before & after
BALCONES OPERATING SYSTEM FOR THE XEROX 820-II   	MACRO-80 3.44	09-Dec-81	PAGE	1-69
TERMINAL / SCREEN MANAGER		

  FE9E    CD F2FE               	CALL	FASTCRT
  FEA1    F5                    	PUSH	AF		;save balcones gold
  FEA2    CD FEA7               	CALL	SIOPL
  FEA5    F1                    	POP	AF
  FEA6    C9                    	RET
                                ;
                                ;	SIOPL - SIO Poll Input Characters.
                                ;
  FEA7    C5                    SIOPL:	PUSH	BC
  FEA8    CD FE77               	CALL	SIOINS		;input SIO status
  FEAB    28 19                 	JR	Z,SIOPL3	;if input not ready
  FEAD    48                    	LD	C,B		;set data port address
  FEAE    ED 78                 	IN	A,(C)
  FEB0    CB BF                 	RES	7,A		;pitch parity bit
  FEB2    E5                    	PUSH	HL
  FEB3    2A FEEA               	LD	HL,(IPOINT)	;set in pointer
  FEB6    77                    	LD	(HL),A		;store character in FIFO
  FEB7    2C                    	INC	L
  FEB8    20 02                 	JR	NZ,SIOPL1
  FEBA    2E 00                 	LD	L,LOW SIOBUF
  FEBC    3A FEEC               SIOPL1:	LD	A,(OPOINT)
  FEBF    95                    	SUB	L
  FEC0    28 03                 	JR	Z,SIOPL2	;if buffer full
  FEC2    22 FEEA               	LD	(IPOINT),HL
  FEC5    E1                    SIOPL2:	POP	HL
  FEC6    C1                    SIOPL3:	POP	BC
  FEC7    C9                    	RET
                                ;
                                ;	SIOIST - SIO Input Status.
                                ;
  FEC8    CD FEA7               SIOIST:	CALL	SIOPL		;poll for input
  FECB    2A FEEC               	LD	HL,(OPOINT)	;set out pointer
  FECE    3A FEEA               	LD	A,(IPOINT)
  FED1    95                    	SUB	L
  FED2    C8                    	RET	Z		;if data not ready
  FED3    F6 FF                 	OR	-1
  FED5    C9                    	RET
                                ;
                                ;	SIOIN - SIO Input Character.
                                ;
  FED6    CD FEC8               SIOINC:	CALL	SIOIST		;set input ready status
  FED9    28 FB                 	JR	Z,SIOINC
  FEDB    7E                    	LD	A,(HL)
  FEDC    2C                    	INC	L		;advance out
  FEDD    20 02                 	JR	NZ,SIOI1
  FEDF    2E 00                 	LD	L,LOW SIOBUF
  FEE1    22 FEEC               SIOI1:	LD	(OPOINT),HL
  FEE4    C9                    	RET
  FEE5    00                    STATUS:	DB	0
  FEE6    0100                  BOTPTR:	DW	TRMBUF
  FEE8    0100                  TOPPTR:	DW	TRMBUF
  FEEA    EF00                  IPOINT:	DW	SIOBUF
  FEEC    EF00                  OPOINT:	DW	SIOBUF
                                	ELSE
                                TERM	EQU	WHAT
                                	ENDIF
                                	IF	OPTIONS AND O.HELP
                                ;
                                ;	Help Key Command.
                                ;
BALCONES OPERATING SYSTEM FOR THE XEROX 820-II   	MACRO-80 3.44	09-Dec-81	PAGE	1-70
TERMINAL / SCREEN MANAGER		

                                	OVERLAY	HELP
  070B'                   +     	C&SEG
  FC55    CD FC3D               	CALL	PNEXT
  FC58    42 61 75 64           	DEFB   'Baud		<rate> [B/A]',CR,LF
  FC5C    09 09 3C 72           
  FC60    61 74 65 3E           
  FC64    20 5B 42 2F           
  FC68    41 5D 0D 0A           
                                ;	DEFB   'Copy		<start> <end> <to>',cr,lf
  FC6C    44 75 6D 70           	DEFB   'Dump		[start] [end]',CR,LF
  FC70    09 09 5B 73           
  FC74    74 61 72 74           
  FC78    5D 20 5B 65           
  FC7C    6E 64 5D 0D           
  FC80    0A                    
                                ;	DEFB   'Fill		<start> <end> <data>',cr,lf
  FC81    47 6F 74 6F           	DEFB   'Goto		<addr>',CR,LF
  FC85    09 09 3C 61           
  FC89    64 64 72 3E           
  FC8D    0D 0A                 
                                ;	DEFB   'Host terminal	[A/B]',cr,lf
                                ;	DEFB   'Input		<port>',cr,lf
  FC8F    4D 6F 64 69           	DEFB   'Modify		<addr>',CR,LF
  FC93    66 79 09 09           
  FC97    3C 61 64 64           
  FC9B    72 3E 0D 0A           
                                ;	DEFB   'Output		<port> <data>',cr,lf
  FC9F    50 72 6F 74           	DEFB   'Protocol	<xon> [msk val]',CR,LF
  FCA3    6F 63 6F 6C           
  FCA7    09 3C 78 6F           
  FCAB    6E 3E 20 5B           
  FCAF    6D 73 6B 20           
  FCB3    76 61 6C 5D           
  FCB7    0D 0A                 
                                ;	DEFB   'Read		<unit> <trk> <sect> <addr>',cr,lf
                                ;	DEFB   'Verify		<start> <end> <with>',cr,lf
                                ;	DEFB   'Xtended test	<start> <end>',cr,lf,lf
  FCB9    04                    	DEFB	EOT
  FCBA    C9                    	RET
                                	ELSE
                                HELP	EQU	WHAT
                                	ENDIF
                                	SUBTTL	SEGMENT SIZE INFORMATION
                                	PAGE
BALCONES OPERATING SYSTEM FOR THE XEROX 820-II   	MACRO-80 3.44	09-Dec-81	PAGE	1-71
SEGMENT SIZE INFORMATION

                                
                                ;
                                ;	Top of Overlay Area.
                                ;
                                	OVERLAY	STOP
  0771'                   +     	C&SEG
  0299                          TPAMAX	EQU	TPAL		;set length of transient move
                                ;
                                ;	Top of Resident Monitor.
                                ;
                                	BELOW
  0000!                   +     	DEFS	COMRES
  041B                          RBASE	EQU	$
                                ;
                                ;	Top of Non Resident Monitor.
                                ;
                                	ABOVE
  0518!                   +     	D&SEG
  FC55                          RESTOP	EQU	$		;resident top
  0C55                          RESLEN	EQU	$-MONITR	;length of resident monitor
                                	UPDATE			;clear active segment
                                ;
                                ;	Top of Burned Rom Set.
                                ;
  17E1                          ROMTOP	EQU	BLOC+DLOC+TLOC-MONITR
                                ;
                                ;	Fill Out Unused Rom Space.
                                ;
  0C55"                         	CSEG
                                	IF	(ROM+ROMSIZ-ROMTOP) GT 0
  0771'                         	DEFS	(ROM+ROMSIZ-ROMTOP),-1
                                	ENDIF
                                	SUBTTL	RESIDENT MONITOR SYSTEM RAM
                                	PAGE
BALCONES OPERATING SYSTEM FOR THE XEROX 820-II   	MACRO-80 3.44	09-Dec-81	PAGE	1-72
RESIDENT MONITOR SYSTEM RAM

                                
                                	.PHASE	RAM
                                ;
                                ;	Start of Documented Storage Locations.
                                ;
  FF00                          VECTAB:				;interrupt vector table starts here
  FF00                          SIOVEC:	DEFS	16		;space for 8 vectors for SIO
  FF10                          CTCVEC:	DEFS	8		;space for 4 vectors for CTC
  FF18                          SYSVEC:	DEFS	4		;space for 2 vectors for system PIO
  FF1C                          GENVEC:	DEFS	4		;space for 2 vectors for general PIO
                                ;
                                ;	Keyboard data input FIFO variables
                                ;
  FF20                          FIFO:	DEFS	16		;console input fifo
  FF30                          FIFCNT:	DEFS	1		;fifo data counter
  FF31                          FIFIN:	DEFS	1		;fifi input pointer
  FF32                          FIFOUT:	DEFS	1		;fifo output pointer
  FF33                          	DEFS	1		;round address
                                ;
                                ;	More interrupt vectors
                                ;
  FF34                          EXPVEC:	DEFS	8		;space for 4 vectors for expansion slot
                                ;
                                ;	Available memory pointers.
                                ;
  FF3C                          AVAILB:	DEFS	2		;bottom of available memory
  FF3E                          AVAILT:	DEFS	2		;top of available memory
                                ;
                                ;
                                ;	End of documented storage locations.
  FF40                          	DEFS	16		;local stack for interrupts
  FF50                          INTSTK:
                                ;
                                ;	clock-timer interrupt variables
                                ;
  FF50                          MILSEC:	DEFS	2		;One Millisecond timer, Enable int on CTC1
  FF52                          TIKCNT:	DEFS	2		;16 bit seconds counter (18 hr, 12 min, 16 sec)
  FF54                          STEPRT:	DEFS	1		;WD 1797 step rate
  FF55                          TIMOUT:	DEFS	1		;time-out, decrements once per second
                                ;
                                ;	Getime entry returns the address of DAY
                                ;
  FF56                          DAY:	DEFS	1		;calendar day		(01-31)
  FF57                          MONTH:	DEFS	1		;	  month		(01-12)
  FF58                          YEAR:	DEFS	1		;	  year-1970	(1970-2225)
  FF59                          HRS:	DEFS	1		;clock hours		(00-23)
  FF5A                          MINS:	DEFS	1		;      minutes		(00-59)
  FF5B                          SECS:	DEFS	1		;      seconds		(00-59)
                                ;
                                ;	CRT output driver variables
                                ;
  FF5C                          LINBUF:	DEFS	80		;line buffer & Bcc gold mine
  FFAC                          CURSOR:	DEFS	2		;cursor pointer
  FFAE                          CSRCHR:	DEFS	1		;character used for a cursor
  FFAF                          DIRCUR:	DEFS	2		;cursor pointer for direct CRT display
  FFB1                          BASE:	DEFS	1		;current contents of scroll register
  FFB2                          LEADIN:	DEFS	1		;state of lead-in sequence handler
  FFB3                          ATTRIB:	DEFS	1		;attribute enable
  FFB4                          CHRSAV:	DEFS	1		;character under cusror
BALCONES OPERATING SYSTEM FOR THE XEROX 820-II   	MACRO-80 3.44	09-Dec-81	PAGE	1-73
RESIDENT MONITOR SYSTEM RAM

                                ;
                                ;	Console monitor program variables
                                ;
  FFB5                          PARAM1:	DEFS	2		;storage for numbers read
  FFB7                          PARAM2:	DEFS	2		; from line input buffer
  FFB9                          PARAM3:	DEFS	2		; by 'PARAMS' subroutine
  FFBB                          PARAM4:	DEFS	2		; for command processors
  FFBD                          LAST:	DEFS	2		;last address used by 'MEMDMP'
                                ;
                                ;	Configurable parameter address table
                                ;
  FFBF                          CONTBL:	DEFS	2*NUMCON
  FFCB                          SPARE1:	DEFS	1		;spare configuration byte
  FFCC                          SPARE2:	DEFS	1		;another spare byte
  FFCD                          SPARE:	DEFS	(RAM+100H-48)-$	;spare RAM space
  FFD0                          SPARND:				;end of spare RAM
  FFD0                          	DEFS	16		;CRT stack
  FFE0                          CRTSTK:
  FFE0                          RSTSP:	DEFS	2		;SP register on reset
  FFE2                          RSTHL:	DEFS	2		;HL register on reset
  FFE4                          RSTPC:	DEFS	2		;possible PC from top of stack
  FFE6                          	DEFS	26		;monitor stack
  0000                          STACK:
                                	.DEPHASE
                                	SUBTTL	CONSOLE MESSAGES
                                	PAGE
BALCONES OPERATING SYSTEM FOR THE XEROX 820-II   	MACRO-80 3.44	09-Dec-81	PAGE	1-74
CONSOLE MESSAGES

                                
                                ;
                                ;	Console Message Macros.
                                ;
                                MESSAGE	MACRO	TEXT,H1,H2
                                	IF1
                                	.RADIX	16
                                	PRINTX	<TEXT>,%(H1),%(H2-1),%((H2)-(H1))
                                	.RADIX	10
                                	ENDIF
                                	ENDM
                                PRINTX	MACRO	TEXT,H1,H2,H3
                                	.PRINTX + TEXT H1 - H2 = H3 +
                                	ENDM
                                	IF	ROMTOP GE (ROM+ROMSIZ)
                                	MESSAGE	<* THE ROM SET IS TFB *>,ROM+ROMSIZ,ROMTOP
                                	ENDIF
                                	IF	CLOC+TPAL GT RAM
                                	MESSAGE	<* THE TPA SET IS TFB *>,RAM,CLOC+TPAL
                                	ENDIF
                                	MESSAGE	<NON-RESIDENT EXECUTES >,ROM,BLOC
                                	MESSAGE	<ROM IS BURNED UP FROM >,ROM,ROMTOP
                                	MESSAGE	<UNUSED ROM SPACE FROM >,ROMTOP,ROM+ROMSIZ-1
                                	MESSAGE	<RESIDENT MONITOR NEEDS>,MONITR,RQTOP
                                	MESSAGE	<SPACE WASTED TO DRIVER>,WASTED,SELTAB
                                	MESSAGE <PHYSICAL DISK DRIVERS >,SELTAB,DVRLMT
                                	MESSAGE <DRIVER OFFSET FOR ZSID>,200H+BLOC+SELTAB-MONITR,0
                                	MESSAGE	<I/O BYTE DRIVERS FROM >,IOBLOC,IOBLOC+IOBDVS
                                	MESSAGE	<COMMAND PROCESSOR AREA>,RQTOP,RESTOP
                                	MESSAGE	<TRANSIENT OVERLAY ROM >,START,STOP
                                	MESSAGE	<TRANSIENT COMMAND AREA>,CLOC,CLOC+TPAL
                                	MESSAGE	<SPARE LOCATIONS IN RAM>,SPARE,SPARND
                                	SUBTTL	THE*END
                                	END	ENTRY
BALCONES OPERATING SYSTEM FOR THE XEROX 820-II   	MACRO-80 3.44	09-Dec-81	PAGE	S
THE*END

Macros:
ABOVE           BELOW           BSEG            LDIRS           MESSAGE         
OVERLAY         PRINTX          SEGMENT         SERVICE         UPDATE          

Symbols:
009B 	ABORT           0068 	ASYNC           FFB3 	ATTRIB          
FA78 	AUTOBT          FF3C 	AVAILB          FF3E 	AVAILT          
02CE 	BAKSPC          FFB1 	BASE            1353 	BAUD            
FC5D 	BAUD1           FC65 	BAUD2           0000 	BAUDA           
000C 	BAUDB           001B!	BBASE           040F 	BBG             
032F 	BELL            0331 	BELL1           0028 	BELLOF          
0029 	BELLON          041B 	BLOC            FC49 	BLOCAD          
1436 	BLOCK           0061 	BLOFC           0061 	BLONC           
0035 	BLTIM           000F 	BNDRY           11B8 	BOOT            
FC58 	BOOT1           FC69 	BOOT2           FCA3 	BOOT3           
ED80 	BOOTBF          FCDD 	BOOTD           FCD9 	BOOTER          
0080 	BOOTLD          FCD4 	BOOTS           FEE6 	BOTPTR          
FCB2 	BRKFLG          00AE 	BRKKEY          0000 	BSPACE          
EE80 	BUFTOP          0004 	C.FIVE          0007 	C.KEYM          
0006 	C.SASI          F31E 	CCA             F323 	CCA1            
F324 	CCA2            00AF 	CCS             00B1 	CCS1            
0108 	CFINIT          FB0E 	CHECK           03F5 	CHRDEL          
03EA 	CHRIN1          03F0 	CHRIN2          03DC 	CHRINS          
0034 	CHROM1          0035 	CHROM2          FFB4 	CHRSAV          
FC55 	CLOC            0350 	CLR1            FD21 	CLRBRK          
001A 	CLRCHR          0344 	CLREOL          0361 	CLREOS          
0341 	CLRLIN          001A 	CLRS            0365 	CLRS1           
037A 	CLRS2           0357 	CLRSCN          0036 	CMDSIZ          
FAD8 	CMDTAB          F000 	COLD            F775 	COMINP          
F770 	COMINS          F788 	COMOTS          F77F 	COMOUT          
0518 	COMRES          0518C	COMROM          F091 	CONFG           
F08B 	CONFIG          F009 	CONIN           F790 	CONIOB          
F00C 	CONOUT          F006 	CONST           FFBF 	CONTBL          
023D 	CONTRL          000D 	CR              FC36 	CRLF            
0030 	CRTBAS          0182 	CRTD1           0196 	CRTD2           
0199 	CRTD3           01B2 	CRTD4           0169 	CRTDVR          
F2A3 	CRTLDIR         3C00 	CRTMAX          3000 	CRTMEM          
F2E7 	CRTMV           F2E9 	CRTMVO          F296 	CRTOF1          
F293 	CRTOFF          F29C 	CRTON           F299 	CRTON1          
F2F1 	CRTOUT          FFE0 	CRTSTK          003C 	CRTTOP          
0000 	CSPACE          FFAE 	CSRCHR          0018 	CTC             
0018 	CTC0            0019 	CTC1            001A 	CTC2            
001B 	CTC3            FF10 	CTCVEC          0036 	CTLSIZ          
0254 	CTLTAB          FFAC 	CURSOR          FF56 	DAY             
F086 	DAYTIM          FDEB 	DBL             0000 	DEBUG           
02C5 	DEFCUR          0017 	DELLIN          FFAF 	DIRCUR          
01F3 	DIS1            01F2 	DISATR          FDC2 	DLN             
FDC7 	DLN1            FDCE 	DLN2            FDD2 	DLN3            
FDE1 	DLN4            FC55 	DLOC            FC23 	DMPFMT          
02E7 	DNCSR           FD72 	DOC             F1F1 	DPM             
FC76 	DSK0            FC7B 	DSK1            FCA0 	DSK3            
1367 	DSKCMD          F390 	DSKDVR          FCAC 	DSKERR          
0000 	DSPACE          FDB1 	DTL             FB8F 	DUMP            
FB98 	DUMP2           FBB4 	DUMP3           FBD1 	DUMP4           
FA08 	DVRLMT          F380 	DVRTAB          FD05 	EATME           
FC27 	ECHO            F0A2 	EIRET           01EF 	ENATR           
0000!	ENTRY           0004 	EOT             00C4 	ERR             
00BC 	ERR1            00C1 	ERR2            00CC 	ERR3            
00D4 	ERRM1           00DD 	ERRM2           0009 	ERRML           
BALCONES OPERATING SYSTEM FOR THE XEROX 820-II   	MACRO-80 3.44	09-Dec-81	PAGE	S-1
THE*END

001B 	ESC             029B 	ESCADR          02BD 	ESCAPE          
028A 	ESCTAB          0011 	ESCTBL          FF34 	EXPVEC          
0000 	FALSE           F2FE 	FASTCRT         FF30 	FIFCNT          
FF31 	FIFIN           FF20 	FIFO            FF32 	FIFOUT          
1428 	FILL            FC59 	FILL1           F470 	FIVDPB          
001F 	FORCE           02D4 	FORSPC          FE50 	GCP             
FE61 	GCP1            FF1C 	GENVEC          FBDA 	GETHEX          
FB2C 	GETHLP          FB37 	GETLIN          F097 	GETSEL          
FB38 	GLIN1           FB50 	GLIN4           FBDF 	GNUM1           
FBE4 	GNUM3           F319 	GOLD            12DB 	GOTO            
0009 	GPIOCA          000B 	GPIOCB          0008 	GPIODA          
000A 	GPIODB          177B 	HELP            001E 	HELPKEY         
FBF3 	HEXBIN          FA3C 	HOME            02C9 	HOMEUP          
001E 	HOMSCR          FF59 	HRS             F066 	IDLE            
FC5A 	IN1             FC61 	IN2             FC77 	IN3             
FC79 	IN4             13CA 	INCMD           F137 	INDEX           
0016 	INSLIN          00E6 	INTAB           FF50 	INTSTK          
112B 	IOBDVR          008D 	IOBDVS          F770 	IOBLOC          
0003 	IOBYTE          F7AF 	IOCONI          F796 	IOCONO          
F7A3 	IOCONS          F7BB 	IOLIST          F7CC 	IOLSTS          
FEEA 	IPOINT          FAD6 	JPIX            001F 	KBDCTL          
001E 	KBDDAT          F0D8 	KBDIN           F0D5 	KBDIN1          
F0CD 	KBDST           F0E2 	KBMASK          0082 	KDNLIN          
F162 	KEY1            F167 	KEY2            F17F 	KEY3            
F184 	KEY4            F18F 	KEY5            F140 	KEYSRV          
0081 	KUPLIN          FFBD 	LAST            FE0B 	LBL             
FE2E 	LBL1            FD05 	LCP             FD1D 	LCP1            
FD30 	LCP2            FD52 	LCP3            FD49 	LCPA            
FD4B 	LCPB            F2B3 	LDIR1           F2B5 	LDIR2           
F2C4 	LDIR3           0000 	LDIRSM          0418 	LDIRX           
FFB2 	LEADIN          000A 	LF              02F7 	LFEED           
FF5C 	LINBUF          0388 	LIND1           039E 	LIND2           
039F 	LIND3           037C 	LINDEL          03B7 	LINI1           
03C0 	LINI2           03CD 	LINI3           03A4 	LININS          
008A 	LOCALF          0036 	LOWLITE         F333 	LSTATT          
FD89 	LTL             0800 	LX1984          021C 	M3TST           
022B 	M4TST           0232 	M5TST           F0E3 	MASK            
FB22 	MDATA           FC5B 	MDMP1           FC5E 	MDMP2           
FC63 	MDMP3           FC69 	MDMP3A          FC71 	MDMP3B          
12F2 	MEMDMP          F236 	MIL0            F246 	MIL01           
F250 	MIL02           F258 	MILL1           F265 	MILL2           
F278 	MILL3           F27C 	MILL4           F27E 	MILL5           
F281 	MILL6           F1FD 	MILLI           FF50 	MILSEC          
FF5A 	MINS            01DF 	MODE            01E1 	MODE1           
F000 	MONITR          FF57 	MONTH           00E2 	MOVLN           
01B4 	MULTI           02C0 	NONO            F13F 	NULINT          
0006 	NUMCON          4000 	O.AUTO          0400 	O.BAUD          
0800 	O.DDVR          0020 	O.DISK          0010 	O.ESCT          
0004 	O.FILL          2000 	O.HELP          0200 	O.INPC          
0002 	O.MOVE          0100 	O.OUTC          1000 	O.PROT          
0040 	O.RAMT          8000 	O.RESV          0001 	O.TERM          
0008 	O.TYPE          0080 	O.VERF          FEEC 	OPOINT          
BFFF 	OPTIONS         13F1 	OUTCMD          FE9B 	OUTCRT          
F288 	OUTCUR          FC20 	OUTPUT          0007 	P.ACKN          
0000 	P.AUTO          0006 	P.ONLN          0005 	P.RDYI          
0004 	P.RDYO          0002 	P.STRB          FB5D 	PARA0           
FB6C 	PARA1           FB71 	PARA2           FB76 	PARA4           
FFB5 	PARAM1          FFB7 	PARAM2          FFB9 	PARAM3          
FFBB 	PARAM4          FB5F 	PARAMS          000F 	PASS8           
FA0E 	PHYCMD          FA15 	PHYDMA          FA10 	PHYDRV          
BALCONES OPERATING SYSTEM FOR THE XEROX 820-II   	MACRO-80 3.44	09-Dec-81	PAGE	S-2
THE*END

FA13 	PHYSEC          FA11 	PHYTRK          FA0F 	PHYUNT          
F7F0 	PIO1            F7DC 	PIOOUT          F7F4 	PIOSTO          
FCB1 	PKI             FCC9 	PKI1            FCDF 	PKI2            
FCF3 	PKI3            FCF6 	PKI4            FCFE 	PKI5            
FD06 	PKI6            FD0E 	PKI7            FD14 	PKI8            
FD1B 	PKI9            FC3D 	PNEXT           FE78 	PORTS           
FD40 	PRC             FAAC 	PRMT1           FA62 	PROMPT          
FC68 	PROT1           FC6F 	PROT2           1459 	PROTO           
0000 	PRS             0002 	PRS1            003B 	PRS2            
0061 	PRS3            0070 	PRS4            00AC 	PRS5            
F339 	PRVATT          FC1B 	PUT2HS          FC03 	PUT2HX          
FB29 	PUT2J           FC16 	PUT4HS          FC0C 	PUTNIB          
FF00 	RAM             041B 	RBASE           FE6E 	RCP             
FE73 	RCPA            FA4A 	RDWR            FA48 	READ            
F130 	REMOVE          0C55 	RESLEN          F07C 	RESTART         
FC55 	RESTOP          F1EF 	RETINS          02F2 	RETURN          
F0A1 	RETV1           F09A 	RETVAL          0191 	REV             
F1E9 	RFI             F708 	RIGDPB          00B2 	RMTALF          
00B1 	RMTTOG          0000 	ROM             1800 	ROMSIZ          
17E1 	ROMTOP          FA08 	RQTOP           F332 	RSTATT          
FFE2 	RSTHL           FFE4 	RSTPC           FFE0 	RSTSP           
1800 	RX1984          0005 	S.AUTOL         0004 	S.AUTOR         
0007 	S.LECHO         0006 	S.RECHO         0300 	SASIDL          
F1EC 	SAVSTK          0014 	SCROLL          009E 	SCRPRT          
01C3 	SEARCH          FF5B 	SECS            FA3E 	SEEK            
0518!	SEGA            FA39 	SEL1            FA17 	SELECT          
FA08 	SELERR          F360 	SELTAB          FA5A 	SELTBL          
01D4 	SETBLI          FD2C 	SETBRK          021F 	SETCOL          
F0A4 	SETCON          F284 	SETCUR          01DD 	SETGRA          
01D9 	SETINV          01CF 	SETLOW          01F7 	SETMSK          
F337 	SETPRV          0210 	SETROW          0205 	SETXY           
0209 	SETXY1          FC73 	SIGN1           FC81 	SIGN2           
FC88 	SIGN3           FC9E 	SIGN3A          FCA6 	SIGN4           
FC55 	SIGNON          EF00 	SIOBUF          0006 	SIOCPA          
0007 	SIOCPB          0004 	SIODPA          0005 	SIODPB          
FEE1 	SIOI1           F0F0 	SIOIN           F0ED 	SIOIN1          
FED6 	SIOINC          FE7F 	SIOINP          FE77 	SIOINS          
FEC8 	SIOIST          F10C 	SIOMSK          FE90 	SIOOT           
FE91 	SIOOT1          F0F8 	SIOOUT          FEA7 	SIOPL           
FEBC 	SIOPL1          FEC5 	SIOPL2          FEC6 	SIOPL3          
F113 	SIORD1          F129 	SIORD2          F12C 	SIORD3          
FE8A 	SIORDT          F105 	SIORDY          F0E5 	SIOST           
F10E 	SIOVAL          FF00 	SIOVEC          F0F9 	SIOX1           
0031 	SLDDEN          0030 	SLSDEN          03D1 	SMP             
FD4C 	SNDLOC          FD5F 	SNDRMT          F0D2 	SOFT            
FC1E 	SPACE           F20E 	SPACT           F22D 	SPADDR          
FFCD 	SPARE           FFCB 	SPARE1          FFCC 	SPARE2          
FFD0 	SPARND          F224 	SPCNT           F0BF 	SSP             
0000 	STACK           1070 	START           FEE5 	STATUS          
FF54 	STEPRT          17E1 	STOP            02C1 	STUFF           
FCEE 	SWAP            FCFB 	SWAP1           0069 	SYNC            
001D 	SYSCTL          001C 	SYSPIO          FF18 	SYSVEC          
031F 	TAB             14E2 	TERM            FC5E 	TERM1           
FC68 	TERM2           FCA3 	TERM3           13FB 	TEST            
FC5E 	TEST1           FC61 	TEST2           FC6D 	TEST3           
FF52 	TIKCNT          F192 	TIMER           F1B1 	TIMER1          
F1B9 	TIMER2          F1E8 	TIMER3          FF55 	TIMOUT          
0771 	TLOC            FEE8 	TOPPTR          0299 	TPAL            
0299 	TPAMAX          0100 	TRMBUF          EF00 	TRMSTK          
FFFF 	TRUE            FC5E 	TYP0            FC90 	TYP1            
BALCONES OPERATING SYSTEM FOR THE XEROX 820-II   	MACRO-80 3.44	09-Dec-81	PAGE	S-3
THE*END

FCA4 	TYP2            1477 	TYPE            00FF 	TYPTOG          
02DC 	UPCSR           F048 	USRSEC          F31B 	USRSTK          
FF00 	VECTAB          1443 	VERCMD          FC5E 	VERF1           
FC66 	VERF2           1315 	VIEW            FC55 	VIEW0           
FC6F 	VIEW1           FC89 	VIEW2           FC8A 	VIEW3           
FC8E 	VIEW4           FC90 	VIEW5           F003 	WARM            
F35F 	WASTED          0010 	WD1797          0298 	WD17DL          
FAC9 	WHAT            FE41 	WLP             FA44 	WRITE           
FE34 	WUP             0003!	XCKS            000B!	XCKS1           
0013 	XOFF            F12D 	XOFFLG          0011 	XON             
F115 	XONENB          F344 	XQDVR           FA51 	XQPHYS          
FF58 	YEAR            EE7D 	Z.BAUA          EE7E 	Z.BAUB          
EE7F 	Z.IOBT          EE62 	Z.KEYM          EE5F 	Z.SCRA          
EE63 	Z.SIOA          EE6D 	Z.SIOB          EE77 	Z.SIOM          
EE79 	Z.SIOV          EE60 	Z.STPR          EE7B 	Z.XONP          



No Fatal error(s)


